###############################################################################
#                                                                             #
# IAR C/C++ Compiler V7.60.1.40026 for 8051             12/Jun/2011  08:47:55 #
# Copyright (C) 2004-2010 IAR Systems AB.                                     #
#                                                                             #
#    Core               =  plain                                              #
#    Code model         =  banked                                             #
#    Data model         =  large                                              #
#    Calling convention =  xdata reentrant                                    #
#    Constant location  =  data_rom                                           #
#    Dptr setup         =  1,16                                               #
#    Source file        =  D:\Texas Instruments\ZStack-CC2530-2.4.0-1.4.0\Com #
#                          ponents\hal\target\CC2530EB\hal_key.c              #
#    Command line       =  -f "D:\Texas Instruments\ZStack-CC2530-2.4.0-1.4.0 #
#                          \Projects\zstack\Utilities\Transmit\CC2530DB\..\.. #
#                          \..\Tools\CC2530DB\f8wEndev.cfg" (-DCPU32MHZ       #
#                          -DROOT=__near_func -DMAC_CFG_TX_DATA_MAX=3         #
#                          -DMAC_CFG_TX_MAX=6 -DMAC_CFG_RX_MAX=3) -f          #
#                          "D:\Texas Instruments\ZStack-CC2530-2.4.0-1.4.0\Pr #
#                          ojects\zstack\Utilities\Transmit\CC2530DB\..\..\.. #
#                          \Tools\CC2530DB\f8wConfig.cfg" (-DZIGBEEPRO        #
#                          -DSECURE=0 -DZG_SECURE_DYNAMIC=0 -DREFLECTOR       #
#                          -DDEFAULT_CHANLIST=0x00000800                      #
#                          -DZDAPP_CONFIG_PAN_ID=0xFFFF                       #
#                          -DNWK_START_DELAY=100 -DEXTENDED_JOINING_RANDOM_MA #
#                          SK=0x007F -DBEACON_REQUEST_DELAY=100               #
#                          -DBEACON_REQ_DELAY_MASK=0x00FF                     #
#                          -DLINK_STATUS_JITTER_MASK=0x007F                   #
#                          -DROUTE_EXPIRY_TIME=30 -DAPSC_ACK_WAIT_DURATION_PO #
#                          LLED=3000 -DNWK_INDIRECT_MSG_TIMEOUT=7             #
#                          -DMAX_RREQ_ENTRIES=8 -DAPSC_MAX_FRAME_RETRIES=3    #
#                          -DNWK_MAX_DATA_RETRIES=2                           #
#                          -DMAX_POLL_FAILURE_RETRIES=2 -DMAX_BCAST=9         #
#                          -DAPS_MAX_GROUPS=16 -DMAX_RTG_ENTRIES=40           #
#                          -DNWK_MAX_BINDING_ENTRIES=4                        #
#                          -DMAX_BINDING_CLUSTER_IDS=4 "-DDEFAULT_KEY={0x01,  #
#                          0x03, 0x05, 0x07, 0x09, 0x0B, 0x0D, 0x0F, 0x00,    #
#                          0x02, 0x04, 0x06, 0x08, 0x0A, 0x0C, 0x0D}"         #
#                          -DMAC_MAX_FRAME_SIZE=116                           #
#                          -DZDNWKMGR_MIN_TRANSMISSIONS=20 "-DCONST=const     #
#                          __code" -DGENERIC=__generic                        #
#                          -DRFD_RCVC_ALWAYS_ON=FALSE -DPOLL_RATE=1000        #
#                          -DQUEUED_POLL_RATE=100 -DRESPONSE_POLL_RATE=100)   #
#                          -DREJOIN_POLL_RATE=440 "D:\Texas                   #
#                          Instruments\ZStack-CC2530-2.4.0-1.4.0\Components\h #
#                          al\target\CC2530EB\hal_key.c" -D NWK_AUTO_POLL -D  #
#                          MT_TASK -D ZTOOL_P1 -D MT_SYS_FUNC -D MT_ZDO_FUNC  #
#                          -D xPOWER_SAVING -D END_DEVICE -D                  #
#                          ZDNWKMGR_MIN_TRANSMISSIONS=0 -lC "D:\Texas         #
#                          Instruments\ZStack-CC2530-2.4.0-1.4.0\Projects\zst #
#                          ack\Utilities\Transmit\CC2530DB\EndDeviceEB\List\" #
#                           -lA "D:\Texas Instruments\ZStack-CC2530-2.4.0-1.4 #
#                          .0\Projects\zstack\Utilities\Transmit\CC2530DB\End #
#                          DeviceEB\List\" --diag_suppress Pe001,Pa010 -o     #
#                          "D:\Texas Instruments\ZStack-CC2530-2.4.0-1.4.0\Pr #
#                          ojects\zstack\Utilities\Transmit\CC2530DB\EndDevic #
#                          eEB\Obj\" -e --require_prototypes                  #
#                          --no_code_motion --debug --core=plain --dptr=16,1  #
#                          --data_model=large --code_model=banked             #
#                          --calling_convention=xdata_reentrant               #
#                          --place_constants=data_rom --nr_virtual_regs 16    #
#                          -I "D:\Texas Instruments\ZStack-CC2530-2.4.0-1.4.0 #
#                          \Projects\zstack\Utilities\Transmit\CC2530DB\" -I  #
#                          "D:\Texas Instruments\ZStack-CC2530-2.4.0-1.4.0\Pr #
#                          ojects\zstack\Utilities\Transmit\CC2530DB\..\Sourc #
#                          e\" -I "D:\Texas Instruments\ZStack-CC2530-2.4.0-1 #
#                          .4.0\Projects\zstack\Utilities\Transmit\CC2530DB\. #
#                          .\..\..\ZMain\TI2530DB\" -I "D:\Texas              #
#                          Instruments\ZStack-CC2530-2.4.0-1.4.0\Projects\zst #
#                          ack\Utilities\Transmit\CC2530DB\..\..\..\..\..\Com #
#                          ponents\hal\include\" -I "D:\Texas                 #
#                          Instruments\ZStack-CC2530-2.4.0-1.4.0\Projects\zst #
#                          ack\Utilities\Transmit\CC2530DB\..\..\..\..\..\Com #
#                          ponents\hal\target\CC2530EB\" -I "D:\Texas         #
#                          Instruments\ZStack-CC2530-2.4.0-1.4.0\Projects\zst #
#                          ack\Utilities\Transmit\CC2530DB\..\..\..\..\..\Com #
#                          ponents\mac\include\" -I "D:\Texas                 #
#                          Instruments\ZStack-CC2530-2.4.0-1.4.0\Projects\zst #
#                          ack\Utilities\Transmit\CC2530DB\..\..\..\..\..\Com #
#                          ponents\mac\high_level\" -I "D:\Texas              #
#                          Instruments\ZStack-CC2530-2.4.0-1.4.0\Projects\zst #
#                          ack\Utilities\Transmit\CC2530DB\..\..\..\..\..\Com #
#                          ponents\mac\low_level\srf04\" -I "D:\Texas         #
#                          Instruments\ZStack-CC2530-2.4.0-1.4.0\Projects\zst #
#                          ack\Utilities\Transmit\CC2530DB\..\..\..\..\..\Com #
#                          ponents\mac\low_level\srf04\single_chip\" -I       #
#                          "D:\Texas Instruments\ZStack-CC2530-2.4.0-1.4.0\Pr #
#                          ojects\zstack\Utilities\Transmit\CC2530DB\..\..\.. #
#                          \..\..\Components\mt\" -I "D:\Texas                #
#                          Instruments\ZStack-CC2530-2.4.0-1.4.0\Projects\zst #
#                          ack\Utilities\Transmit\CC2530DB\..\..\..\..\..\Com #
#                          ponents\osal\include\" -I "D:\Texas                #
#                          Instruments\ZStack-CC2530-2.4.0-1.4.0\Projects\zst #
#                          ack\Utilities\Transmit\CC2530DB\..\..\..\..\..\Com #
#                          ponents\osal\mcu\ccsoc\" -I "D:\Texas              #
#                          Instruments\ZStack-CC2530-2.4.0-1.4.0\Projects\zst #
#                          ack\Utilities\Transmit\CC2530DB\..\..\..\..\..\Com #
#                          ponents\services\saddr\" -I "D:\Texas              #
#                          Instruments\ZStack-CC2530-2.4.0-1.4.0\Projects\zst #
#                          ack\Utilities\Transmit\CC2530DB\..\..\..\..\..\Com #
#                          ponents\services\sdata\" -I "D:\Texas              #
#                          Instruments\ZStack-CC2530-2.4.0-1.4.0\Projects\zst #
#                          ack\Utilities\Transmit\CC2530DB\..\..\..\..\..\Com #
#                          ponents\stack\af\" -I "D:\Texas                    #
#                          Instruments\ZStack-CC2530-2.4.0-1.4.0\Projects\zst #
#                          ack\Utilities\Transmit\CC2530DB\..\..\..\..\..\Com #
#                          ponents\stack\nwk\" -I "D:\Texas                   #
#                          Instruments\ZStack-CC2530-2.4.0-1.4.0\Projects\zst #
#                          ack\Utilities\Transmit\CC2530DB\..\..\..\..\..\Com #
#                          ponents\stack\sapi\" -I "D:\Texas                  #
#                          Instruments\ZStack-CC2530-2.4.0-1.4.0\Projects\zst #
#                          ack\Utilities\Transmit\CC2530DB\..\..\..\..\..\Com #
#                          ponents\stack\sec\" -I "D:\Texas                   #
#                          Instruments\ZStack-CC2530-2.4.0-1.4.0\Projects\zst #
#                          ack\Utilities\Transmit\CC2530DB\..\..\..\..\..\Com #
#                          ponents\stack\sys\" -I "D:\Texas                   #
#                          Instruments\ZStack-CC2530-2.4.0-1.4.0\Projects\zst #
#                          ack\Utilities\Transmit\CC2530DB\..\..\..\..\..\Com #
#                          ponents\stack\zdo\" -I "D:\Texas                   #
#                          Instruments\ZStack-CC2530-2.4.0-1.4.0\Projects\zst #
#                          ack\Utilities\Transmit\CC2530DB\..\..\..\..\..\Com #
#                          ponents\zmac\" -I "D:\Texas                        #
#                          Instruments\ZStack-CC2530-2.4.0-1.4.0\Projects\zst #
#                          ack\Utilities\Transmit\CC2530DB\..\..\..\..\..\Com #
#                          ponents\zmac\f8w\" -I "D:\Program Files\IAR        #
#                          Systems\Embedded Workbench 5.4\8051\INC\" -I       #
#                          "D:\Program Files\IAR Systems\Embedded Workbench   #
#                          5.4\8051\INC\CLIB\" -Ohz                           #
#    List file          =  D:\Texas Instruments\ZStack-CC2530-2.4.0-1.4.0\Pro #
#                          jects\zstack\Utilities\Transmit\CC2530DB\EndDevice #
#                          EB\List\hal_key.lst                                #
#    Object file        =  D:\Texas Instruments\ZStack-CC2530-2.4.0-1.4.0\Pro #
#                          jects\zstack\Utilities\Transmit\CC2530DB\EndDevice #
#                          EB\Obj\hal_key.r51                                 #
#                                                                             #
#                                                                             #
###############################################################################

D:\Texas Instruments\ZStack-CC2530-2.4.0-1.4.0\Components\hal\target\CC2530EB\hal_key.c
      1          /**************************************************************************************************
      2            Filename:       hal_key.c
      3            Revised:        $Date: 2010-09-15 19:02:45 -0700 (Wed, 15 Sep 2010) $
      4            Revision:       $Revision: 23815 $
      5          
      6            Description:    This file contains the interface to the HAL KEY Service.
      7          
      8          
      9            Copyright 2006-2010 Texas Instruments Incorporated. All rights reserved.
     10          
     11            IMPORTANT: Your use of this Software is limited to those specific rights
     12            granted under the terms of a software license agreement between the user
     13            who downloaded the software, his/her employer (which must be your employer)
     14            and Texas Instruments Incorporated (the "License").  You may not use this
     15            Software unless you agree to abide by the terms of the License. The License
     16            limits your use, and you acknowledge, that the Software may not be modified,
     17            copied or distributed unless embedded on a Texas Instruments microcontroller
     18            or used solely and exclusively in conjunction with a Texas Instruments radio
     19            frequency transceiver, which is integrated into your product.  Other than for
     20            the foregoing purpose, you may not use, reproduce, copy, prepare derivative
     21            works of, modify, distribute, perform, display or sell this Software and/or
     22            its documentation for any purpose.
     23          
     24            YOU FURTHER ACKNOWLEDGE AND AGREE THAT THE SOFTWARE AND DOCUMENTATION ARE
     25            PROVIDED “AS IS?WITHOUT WARRANTY OF ANY KIND, EITHER EXPRESS OR IMPLIED,
     26            INCLUDING WITHOUT LIMITATION, ANY WARRANTY OF MERCHANTABILITY, TITLE,
     27            NON-INFRINGEMENT AND FITNESS FOR A PARTICULAR PURPOSE. IN NO EVENT SHALL
     28            TEXAS INSTRUMENTS OR ITS LICENSORS BE LIABLE OR OBLIGATED UNDER CONTRACT,
     29            NEGLIGENCE, STRICT LIABILITY, CONTRIBUTION, BREACH OF WARRANTY, OR OTHER
     30            LEGAL EQUITABLE THEORY ANY DIRECT OR INDIRECT DAMAGES OR EXPENSES
     31            INCLUDING BUT NOT LIMITED TO ANY INCIDENTAL, SPECIAL, INDIRECT, PUNITIVE
     32            OR CONSEQUENTIAL DAMAGES, LOST PROFITS OR LOST DATA, COST OF PROCUREMENT
     33            OF SUBSTITUTE GOODS, TECHNOLOGY, SERVICES, OR ANY CLAIMS BY THIRD PARTIES
     34            (INCLUDING BUT NOT LIMITED TO ANY DEFENSE THEREOF), OR OTHER SIMILAR COSTS.
     35          
     36            Should you have any questions regarding your right to use this Software,
     37            contact Texas Instruments Incorporated at www.TI.com.
     38          **************************************************************************************************/
     39          /*********************************************************************
     40           NOTE: If polling is used, the hal_driver task schedules the KeyRead()
     41                 to occur every 100ms.  This should be long enough to naturally
     42                 debounce the keys.  The KeyRead() function remembers the key
     43                 state of the previous poll and will only return a non-zero
     44                 value if the key state changes.
     45          
     46           NOTE: If interrupts are used, the KeyRead() function is scheduled
     47                 25ms after the interrupt occurs by the ISR.  This delay is used
     48                 for key debouncing.  The ISR disables any further Key interrupt
     49                 until KeyRead() is executed.  KeyRead() will re-enable Key
     50                 interrupts after executing.  Unlike polling, when interrupts
     51                 are enabled, the previous key state is not remembered.  This
     52                 means that KeyRead() will return the current state of the keys
     53                 (not a change in state of the keys).
     54          
     55           NOTE: If interrupts are used, the KeyRead() fucntion is scheduled by
     56                 the ISR.  Therefore, the joystick movements will only be detected
     57                 during a pushbutton interrupt caused by S1 or the center joystick
     58                 pushbutton.
     59          
     60           NOTE: When a switch like S1 is pushed, the S1 signal goes from a normally
     61                 high state to a low state.  This transition is typically clean.  The
     62                 duration of the low state is around 200ms.  When the signal returns
     63                 to the high state, there is a high likelihood of signal bounce, which
     64                 causes a unwanted interrupts.  Normally, we would set the interrupt
     65                 edge to falling edge to generate an interrupt when S1 is pushed, but
     66                 because of the signal bounce, it is better to set the edge to rising
     67                 edge to generate an interrupt when S1 is released.  The debounce logic
     68                 can then filter out the signal bounce.  The result is that we typically
     69                 get only 1 interrupt per button push.  This mechanism is not totally
     70                 foolproof because occasionally, signal bound occurs during the falling
     71                 edge as well.  A similar mechanism is used to handle the joystick
     72                 pushbutton on the DB.  For the EB, we do not have independent control
     73                 of the interrupt edge for the S1 and center joystick pushbutton.  As
     74                 a result, only one or the other pushbuttons work reasonably well with
     75                 interrupts.  The default is the make the S1 switch on the EB work more
     76                 reliably.
     77          
     78          *********************************************************************/
     79          
     80          /**************************************************************************************************
     81           *                                            INCLUDES
     82           **************************************************************************************************/
     83          #include "hal_mcu.h"

   \                                 In  segment SFR_AN, at 0x80
   \   union <unnamed> volatile __sfr _A_P0
   \                     _A_P0:
   \   000000                DS 1

   \                                 In  segment SFR_AN, at 0x89
   \   unsigned char volatile __sfr P0IFG
   \                     P0IFG:
   \   000000                DS 1

   \                                 In  segment SFR_AN, at 0x8b
   \   unsigned char volatile __sfr P2IFG
   \                     P2IFG:
   \   000000                DS 1

   \                                 In  segment SFR_AN, at 0x8c
   \   unsigned char volatile __sfr PICTL
   \                     PICTL:
   \   000000                DS 1

   \                                 In  segment SFR_AN, at 0x9a
   \   unsigned char volatile __sfr IEN2
   \                     IEN2:
   \   000000                DS 1

   \                                 In  segment SFR_AN, at 0xa8
   \   union <unnamed> volatile __sfr _A_IEN0
   \                     _A_IEN0:
   \   000000                DS 1

   \                                 In  segment SFR_AN, at 0xab
   \   unsigned char volatile __sfr P0IEN
   \                     P0IEN:
   \   000000                DS 1

   \                                 In  segment SFR_AN, at 0xac
   \   unsigned char volatile __sfr P2IEN
   \                     P2IEN:
   \   000000                DS 1

   \                                 In  segment SFR_AN, at 0xb8
   \   union <unnamed> volatile __sfr _A_IEN1
   \                     _A_IEN1:
   \   000000                DS 1

   \                                 In  segment SFR_AN, at 0xc0
   \   union <unnamed> volatile __sfr _A_IRCON
   \                     _A_IRCON:
   \   000000                DS 1

   \                                 In  segment SFR_AN, at 0xe8
   \   union <unnamed> volatile __sfr _A_IRCON2
   \                     _A_IRCON2:
   \   000000                DS 1

   \                                 In  segment SFR_AN, at 0xf3
   \   unsigned char volatile __sfr P0SEL
   \                     P0SEL:
   \   000000                DS 1

   \                                 In  segment SFR_AN, at 0xfd
   \   unsigned char volatile __sfr P0DIR
   \                     P0DIR:
   \   000000                DS 1
     84          #include "hal_defs.h"
     85          #include "hal_types.h"
     86          #include "hal_board.h"
     87          #include "hal_drivers.h"
     88          #include "hal_adc.h"
     89          #include "hal_key.h"
     90          #include "osal.h"
     91          
     92          #if (defined HAL_KEY) && (HAL_KEY == TRUE)
     93          
     94          /**************************************************************************************************
     95           *                                              MACROS
     96           **************************************************************************************************/
     97          
     98          /**************************************************************************************************
     99           *                                            CONSTANTS
    100           **************************************************************************************************/
    101          #define HAL_KEY_RISING_EDGE   0
    102          #define HAL_KEY_FALLING_EDGE  1
    103          
    104          #define HAL_KEY_DEBOUNCE_VALUE  25
    105          
    106          /* CPU port interrupt */
    107          #define HAL_KEY_CPU_PORT_0_IF P0IF
    108          #define HAL_KEY_CPU_PORT_2_IF P2IF
    109          
    110          
    111          //-----------------------------------------pan
    112          /* KEY1 is at P0.4 */
    113          #define HAL_KEY_KEY_1_PORT   P0
    114          #define HAL_KEY_KEY_1_BIT    BV(4)
    115          #define HAL_KEY_KEY_1_SEL    P0SEL
    116          #define HAL_KEY_KEY_1_DIR    P0DIR
    117          /* edge interrupt */
    118          #define HAL_KEY_KEY_1_EDGEBIT  BV(4)
    119          #define HAL_KEY_KEY_1_EDGE     HAL_KEY_FALLING_EDGE
    120          /* KEY_1 interrupts */
    121          #define HAL_KEY_KEY_1_IEN      IEN1  /* CPU interrupt mask register */
    122          #define HAL_KEY_KEY_1_IENBIT   BV(5) /* Mask bit for all of Port_0 */
    123          #define HAL_KEY_KEY_1_ICTL     P0IEN /* Port Interrupt Control register */
    124          #define HAL_KEY_KEY_1_ICTLBIT  BV(4) /* P0IEN - P0.4 enable/disable bit */
    125          #define HAL_KEY_KEY_1_PXIFG    P0IFG /* Interrupt flag at source */
    126          //--------------
    127          /* KEY2 is at P0.5 */
    128          #define HAL_KEY_KEY_2_PORT   P0
    129          #define HAL_KEY_KEY_2_BIT    BV(5)
    130          #define HAL_KEY_KEY_2_SEL    P0SEL
    131          #define HAL_KEY_KEY_2_DIR    P0DIR
    132          /* edge interrupt */
    133          #define HAL_KEY_KEY_2_EDGEBIT  BV(5)
    134          #define HAL_KEY_KEY_2_EDGE     HAL_KEY_FALLING_EDGE
    135          /* KEY2 interrupts */
    136          #define HAL_KEY_KEY_2_IEN      IEN1  /* CPU interrupt mask register */
    137          #define HAL_KEY_KEY_2_IENBIT   BV(5) /* Mask bit for all of Port_0 */
    138          #define HAL_KEY_KEY_2_ICTL     P0IEN /* Port Interrupt Control register */
    139          #define HAL_KEY_KEY_2_ICTLBIT  BV(5) /* P0IEN - P0.5 enable/disable bit */
    140          #define HAL_KEY_KEY_2_PXIFG    P0IFG /* Interrupt flag at source */
    141          //--------------
    142          /* KEY3 is at P0.6 */
    143          #define HAL_KEY_KEY_3_PORT   P0
    144          #define HAL_KEY_KEY_3_BIT    BV(6)
    145          #define HAL_KEY_KEY_3_SEL    P0SEL
    146          #define HAL_KEY_KEY_3_DIR    P0DIR
    147          /* edge interrupt */
    148          #define HAL_KEY_KEY_3_EDGEBIT  BV(6)
    149          #define HAL_KEY_KEY_3_EDGE     HAL_KEY_FALLING_EDGE
    150          /* KEY2 interrupts */
    151          #define HAL_KEY_KEY_3_IEN      IEN1  /* CPU interrupt mask register */
    152          #define HAL_KEY_KEY_3_IENBIT   BV(5) /* Mask bit for all of Port_0 */
    153          #define HAL_KEY_KEY_3_ICTL     P0IEN /* Port Interrupt Control register */
    154          #define HAL_KEY_KEY_3_ICTLBIT  BV(6) /* P0IEN - P0.6 enable/disable bit */
    155          #define HAL_KEY_KEY_3_PXIFG    P0IFG /* Interrupt flag at source */
    156          //--------------
    157          /* KEY4 is at P0.7 */
    158          #define HAL_KEY_KEY_4_PORT   P0
    159          #define HAL_KEY_KEY_4_BIT    BV(7)
    160          #define HAL_KEY_KEY_4_SEL    P0SEL
    161          #define HAL_KEY_KEY_4_DIR    P0DIR
    162          /* edge interrupt */
    163          #define HAL_KEY_KEY_4_EDGEBIT  BV(7)
    164          #define HAL_KEY_KEY_4_EDGE     HAL_KEY_FALLING_EDGE
    165          /* KEY2 interrupts */
    166          #define HAL_KEY_KEY_4_IEN      IEN1  /* CPU interrupt mask register */
    167          #define HAL_KEY_KEY_4_IENBIT   BV(5) /* Mask bit for all of Port_0 */
    168          #define HAL_KEY_KEY_4_ICTL     P0IEN /* Port Interrupt Control register */
    169          #define HAL_KEY_KEY_4_ICTLBIT  BV(7) /* P0IEN - P0.7 enable/disable bit */
    170          #define HAL_KEY_KEY_4_PXIFG    P0IFG /* Interrupt flag at source */
    171          //--------------
    172          //-----------------------------------------
    173          
    174          /* SW_6 is at P0.1 */
    175          #define HAL_KEY_SW_6_PORT   P0
    176          #define HAL_KEY_SW_6_BIT    BV(1)
    177          #define HAL_KEY_SW_6_SEL    P0SEL
    178          //#define HAL_KEY_SW_6_DIR    P0DIR
    179          
    180          /* edge interrupt */
    181          #define HAL_KEY_SW_6_EDGEBIT  BV(0)
    182          #define HAL_KEY_SW_6_EDGE     HAL_KEY_FALLING_EDGE
    183          
    184          /* SW_6 interrupts */
    185          #define HAL_KEY_SW_6_IEN      IEN1  /* CPU interrupt mask register */
    186          #define HAL_KEY_SW_6_IENBIT   BV(5) /* Mask bit for all of Port_0 */
    187          #define HAL_KEY_SW_6_ICTL     P0IEN /* Port Interrupt Control register */
    188          #define HAL_KEY_SW_6_ICTLBIT  BV(1) /* P0IEN - P0.1 enable/disable bit */
    189          #define HAL_KEY_SW_6_PXIFG    P0IFG /* Interrupt flag at source */
    190          
    191          /* Joy stick move at P2.0 */
    192          #define HAL_KEY_JOY_MOVE_PORT   P2
    193          #define HAL_KEY_JOY_MOVE_BIT    BV(0)
    194          #define HAL_KEY_JOY_MOVE_SEL    P2SEL
    195          #define HAL_KEY_JOY_MOVE_DIR    P2DIR
    196          
    197          /* edge interrupt */
    198          #define HAL_KEY_JOY_MOVE_EDGEBIT  BV(3)
    199          #define HAL_KEY_JOY_MOVE_EDGE     HAL_KEY_FALLING_EDGE
    200          
    201          /* Joy move interrupts */
    202          #define HAL_KEY_JOY_MOVE_IEN      IEN2  /* CPU interrupt mask register */
    203          #define HAL_KEY_JOY_MOVE_IENBIT   BV(1) /* Mask bit for all of Port_2 */
    204          #define HAL_KEY_JOY_MOVE_ICTL     P2IEN /* Port Interrupt Control register */
    205          #define HAL_KEY_JOY_MOVE_ICTLBIT  BV(0) /* P2IENL - P2.0<->P2.3 enable/disable bit */
    206          #define HAL_KEY_JOY_MOVE_PXIFG    P2IFG /* Interrupt flag at source */
    207          
    208          #define HAL_KEY_JOY_CHN   HAL_ADC_CHANNEL_6
    209          
    210          /**************************************************************************************************
    211           *                                            TYPEDEFS
    212           **************************************************************************************************/
    213          
    214          
    215          /**************************************************************************************************
    216           *                                        GLOBAL VARIABLES
    217           **************************************************************************************************/

   \                                 In  segment XDATA_Z, align 1, keep-with-next
    218          static uint8 halKeySavedKeys;     /* used to store previous key state in polling mode */
   \                     halKeySavedKeys:
   \   000000                DS 1
   \   000001                REQUIRE __INIT_XDATA_Z

   \                                 In  segment XDATA_Z, align 1, keep-with-next
    219          static halKeyCBack_t pHalKeyProcessFunction;
   \                     pHalKeyProcessFunction:
   \   000000                DS 2
   \   000002                REQUIRE __INIT_XDATA_Z

   \                                 In  segment XDATA_Z, align 1, keep-with-next
    220          static uint8 HalKeyConfigured;
   \                     HalKeyConfigured:
   \   000000                DS 1
   \   000001                REQUIRE __INIT_XDATA_Z

   \                                 In  segment XDATA_Z, align 1, keep-with-next
    221          bool Hal_KeyIntEnable;            /* interrupt enable/disable flag */
   \                     Hal_KeyIntEnable:
   \   000000                DS 1
   \   000001                REQUIRE __INIT_XDATA_Z
    222          
    223          /**************************************************************************************************
    224           *                                        FUNCTIONS - Local
    225           **************************************************************************************************/
    226          void halProcessKeyInterrupt(void);
    227          uint8 halGetJoyKeyInput(void);
    228          
    229          
    230          
    231          /**************************************************************************************************
    232           *                                        FUNCTIONS - API
    233           **************************************************************************************************/
    234          
    235          
    236          /**************************************************************************************************
    237           * @fn      HalKeyInit
    238           *
    239           * @brief   Initilize Key Service
    240           *
    241           * @param   none
    242           *
    243           * @return  None
    244           **************************************************************************************************/

   \                                 In  segment BANKED_CODE, align 1, keep-with-next
    245          void HalKeyInit( void )
   \                     HalKeyInit:
    246          {
   \   000000   C082         PUSH    DPL
   \   000002   C083         PUSH    DPH
   \   000004                ; Saved register size: 2
   \   000004                ; Auto size: 0
    247            /* Initialize previous key to 0 */
    248            halKeySavedKeys = 0;
   \   000004   E4           CLR     A
   \   000005   90....       MOV     DPTR,#halKeySavedKeys
   \   000008   F0           MOVX    @DPTR,A
    249          
    250          //  HAL_KEY_SW_6_SEL &= ~(HAL_KEY_SW_6_BIT);    /* Set pin function to GPIO */
    251          //  HAL_KEY_SW_6_DIR &= ~(HAL_KEY_SW_6_BIT);    /* Set pin direction to Input */
    252          //
    253          //  HAL_KEY_JOY_MOVE_SEL &= ~(HAL_KEY_JOY_MOVE_BIT); /* Set pin function to GPIO */
    254          //  HAL_KEY_JOY_MOVE_DIR &= ~(HAL_KEY_JOY_MOVE_BIT); /* Set pin direction to Input */
    255          
    256            HAL_KEY_KEY_1_SEL &= ~(HAL_KEY_KEY_1_BIT);    /* Set pin function to GPIO */
   \   000009   53F3EF       ANL     0xf3,#0xef
    257            HAL_KEY_KEY_1_DIR &= ~(HAL_KEY_KEY_1_BIT);    /* Set pin direction to Input */
   \   00000C   53FDEF       ANL     0xfd,#0xef
    258            
    259            HAL_KEY_KEY_2_SEL &= ~(HAL_KEY_KEY_2_BIT);    /* Set pin function to GPIO */
   \   00000F   53F3DF       ANL     0xf3,#0xdf
    260            HAL_KEY_KEY_2_DIR &= ~(HAL_KEY_KEY_2_BIT);    /* Set pin direction to Input */
   \   000012   53FDDF       ANL     0xfd,#0xdf
    261            
    262            HAL_KEY_KEY_3_SEL &= ~(HAL_KEY_KEY_3_BIT);    /* Set pin function to GPIO */
   \   000015   53F3BF       ANL     0xf3,#0xbf
    263            HAL_KEY_KEY_3_DIR &= ~(HAL_KEY_KEY_3_BIT);    /* Set pin direction to Input */
   \   000018   53FDBF       ANL     0xfd,#0xbf
    264            
    265            HAL_KEY_KEY_4_SEL &= ~(HAL_KEY_KEY_4_BIT);    /* Set pin function to GPIO */
   \   00001B   53F37F       ANL     0xf3,#0x7f
    266            HAL_KEY_KEY_4_DIR &= ~(HAL_KEY_KEY_4_BIT);    /* Set pin direction to Input */
   \   00001E   53FD7F       ANL     0xfd,#0x7f
    267            
    268            /* Initialize callback function */
    269            pHalKeyProcessFunction  = NULL;
   \   000021   90....       MOV     DPTR,#pHalKeyProcessFunction
   \   000024   F0           MOVX    @DPTR,A
   \   000025   A3           INC     DPTR
   \   000026   F0           MOVX    @DPTR,A
    270          
    271            /* Start with key is not configured */
    272            HalKeyConfigured = FALSE;
   \   000027   90....       MOV     DPTR,#HalKeyConfigured
   \   00002A   F0           MOVX    @DPTR,A
    273          }
   \   00002B   02....       LJMP    ?Subroutine0 & 0xFFFF
   \   00002E                REQUIRE P0SEL
   \   00002E                REQUIRE P0DIR

   \                                 In  segment BANKED_CODE, align 1, keep-with-next
   \                     ?Subroutine0:
   \   000000   D083         POP     DPH
   \   000002   D082         POP     DPL
   \   000004   02....       LJMP    ?BRET
    274          
    275          
    276          /**************************************************************************************************
    277           * @fn      HalKeyConfig
    278           *
    279           * @brief   Configure the Key serivce
    280           *
    281           * @param   interruptEnable - TRUE/FALSE, enable/disable interrupt
    282           *          cback - pointer to the CallBack function
    283           *
    284           * @return  None
    285           **************************************************************************************************/

   \                                 In  segment BANKED_CODE, align 1, keep-with-next
    286          void HalKeyConfig (bool interruptEnable, halKeyCBack_t cback)
   \                     HalKeyConfig:
    287          {
   \   000000   74F7         MOV     A,#-0x9
   \   000002   12....       LCALL   ?BANKED_ENTER_XDATA
   \   000005                ; Saved register size: 9
   \   000005                ; Auto size: 0
   \   000005   E9           MOV     A,R1
    288            /* Enable/Disable Interrupt or */
    289            Hal_KeyIntEnable = interruptEnable;
   \   000006   90....       MOV     DPTR,#Hal_KeyIntEnable
   \   000009   F0           MOVX    @DPTR,A
    290          
    291            /* Register the callback fucntion */
    292            pHalKeyProcessFunction = cback;
   \   00000A   90....       MOV     DPTR,#pHalKeyProcessFunction
   \   00000D   EA           MOV     A,R2
   \   00000E   F0           MOVX    @DPTR,A
   \   00000F   A3           INC     DPTR
   \   000010   EB           MOV     A,R3
   \   000011   F0           MOVX    @DPTR,A
    293          
    294            /* Determine if interrupt is enable or not */
    295            if (Hal_KeyIntEnable)
   \   000012   90....       MOV     DPTR,#Hal_KeyIntEnable
   \   000015   E0           MOVX    A,@DPTR
   \   000016   6033         JZ      ??HalKeyConfig_0
    296            {
    297              /* Rising/Falling edge configuratinn */
    298          
    299              PICTL &= ~(HAL_KEY_SW_6_EDGEBIT);    /* Clear the edge bit */
   \   000018   538CFE       ANL     0x8c,#0xfe
    300              /* For falling edge, the bit must be set. */
    301            #if (HAL_KEY_SW_6_EDGE == HAL_KEY_FALLING_EDGE)
    302              PICTL |= HAL_KEY_SW_6_EDGEBIT;
   \   00001B   438C01       ORL     0x8c,#0x1
    303            #endif
    304          
    305          
    306              /* Interrupt configuration:
    307               * - Enable interrupt generation at the port
    308               * - Enable CPU interrupt
    309               * - Clear any pending interrupt
    310               */
    311              HAL_KEY_SW_6_ICTL |= HAL_KEY_SW_6_ICTLBIT;
   \   00001E   43AB02       ORL     0xab,#0x2
    312              HAL_KEY_SW_6_IEN |= HAL_KEY_SW_6_IENBIT;
   \   000021   D2BD         SETB    0xb8.5
    313              HAL_KEY_SW_6_PXIFG = ~(HAL_KEY_SW_6_BIT);
   \   000023   7589FD       MOV     0x89,#-0x3
    314          
    315          
    316          
    317              /* Rising/Falling edge configuratinn */
    318          
    319              HAL_KEY_JOY_MOVE_ICTL &= ~(HAL_KEY_JOY_MOVE_EDGEBIT);    /* Clear the edge bit */
   \   000026   53ACF7       ANL     0xac,#0xf7
    320              /* For falling edge, the bit must be set. */
    321            #if (HAL_KEY_JOY_MOVE_EDGE == HAL_KEY_FALLING_EDGE)
    322              HAL_KEY_JOY_MOVE_ICTL |= HAL_KEY_JOY_MOVE_EDGEBIT;
   \   000029   43AC08       ORL     0xac,#0x8
    323            #endif
    324          
    325          
    326              /* Interrupt configuration:
    327               * - Enable interrupt generation at the port
    328               * - Enable CPU interrupt
    329               * - Clear any pending interrupt
    330               */
    331              HAL_KEY_JOY_MOVE_ICTL |= HAL_KEY_JOY_MOVE_ICTLBIT;
   \   00002C   43AC01       ORL     0xac,#0x1
    332              HAL_KEY_JOY_MOVE_IEN |= HAL_KEY_JOY_MOVE_IENBIT;
   \   00002F   439A02       ORL     0x9a,#0x2
    333              HAL_KEY_JOY_MOVE_PXIFG = ~(HAL_KEY_JOY_MOVE_BIT);
   \   000032   758BFE       MOV     0x8b,#-0x2
    334          
    335          
    336              /* Do this only after the hal_key is configured - to work with sleep stuff */
    337              if (HalKeyConfigured == TRUE)
   \   000035   90....       MOV     DPTR,#HalKeyConfigured
   \   000038   E0           MOVX    A,@DPTR
   \   000039   6401         XRL     A,#0x1
   \   00003B   7033         JNZ     ??HalKeyConfig_1
    338              {
    339                osal_stop_timerEx(Hal_TaskID, HAL_KEY_EVENT);  /* Cancel polling if active */
   \   00003D                ; Setup parameters for call to function osal_stop_timerEx
   \   00003D   7A01         MOV     R2,#0x1
   \   00003F   7B00         MOV     R3,#0x0
   \   000041   90....       MOV     DPTR,#Hal_TaskID
   \   000044   E0           MOVX    A,@DPTR
   \   000045   F9           MOV     R1,A
   \   000046   12....       LCALL   ??osal_stop_timerEx?relay
   \   000049   8025         SJMP    ??HalKeyConfig_1
    340              }
    341            }
    342            else    /* Interrupts NOT enabled */
    343            {
    344              HAL_KEY_SW_6_ICTL &= ~(HAL_KEY_SW_6_ICTLBIT); /* don't generate interrupt */
   \                     ??HalKeyConfig_0:
   \   00004B   53ABFD       ANL     0xab,#0xfd
    345              HAL_KEY_SW_6_IEN &= ~(HAL_KEY_SW_6_IENBIT);   /* Clear interrupt enable bit */
   \   00004E   C2BD         CLR     0xb8.5
    346          
    347              HAL_KEY_KEY_1_ICTL &= ~(HAL_KEY_KEY_1_ICTLBIT); /* don't generate interrupt */
   \   000050   53ABEF       ANL     0xab,#0xef
    348              HAL_KEY_KEY_1_IEN &= ~(HAL_KEY_KEY_1_IENBIT);   /* Clear interrupt enable bit */ 
   \   000053   C2BD         CLR     0xb8.5
    349              
    350              HAL_KEY_KEY_2_ICTL &= ~(HAL_KEY_KEY_2_ICTLBIT); /* don't generate interrupt */
   \   000055   53ABDF       ANL     0xab,#0xdf
    351              HAL_KEY_KEY_2_IEN &= ~(HAL_KEY_KEY_2_IENBIT);   /* Clear interrupt enable bit */     
   \   000058   C2BD         CLR     0xb8.5
    352              
    353              HAL_KEY_KEY_3_ICTL &= ~(HAL_KEY_KEY_3_ICTLBIT); /* don't generate interrupt */
   \   00005A   53ABBF       ANL     0xab,#0xbf
    354              HAL_KEY_KEY_3_IEN &= ~(HAL_KEY_KEY_3_IENBIT);   /* Clear interrupt enable bit */    
   \   00005D   C2BD         CLR     0xb8.5
    355           
    356              HAL_KEY_KEY_4_ICTL &= ~(HAL_KEY_KEY_4_ICTLBIT); /* don't generate interrupt */
   \   00005F   53AB7F       ANL     0xab,#0x7f
    357              HAL_KEY_KEY_4_IEN &= ~(HAL_KEY_KEY_4_IENBIT);   /* Clear interrupt enable bit */ 
   \   000062   C2BD         CLR     0xb8.5
    358              
    359              osal_set_event(Hal_TaskID, HAL_KEY_EVENT);
   \   000064                ; Setup parameters for call to function osal_set_event
   \   000064   7A01         MOV     R2,#0x1
   \   000066   7B00         MOV     R3,#0x0
   \   000068   90....       MOV     DPTR,#Hal_TaskID
   \   00006B   E0           MOVX    A,@DPTR
   \   00006C   F9           MOV     R1,A
   \   00006D   12....       LCALL   ??osal_set_event?relay
    360            }
    361          
    362            /* Key now is configured */
    363            HalKeyConfigured = TRUE;
   \                     ??HalKeyConfig_1:
   \   000070   7401         MOV     A,#0x1
   \   000072   90....       MOV     DPTR,#HalKeyConfigured
   \   000075   F0           MOVX    @DPTR,A
    364          }
   \   000076   FF           MOV     R7,A
   \   000077   02....       LJMP    ?BANKED_LEAVE_XDATA
   \   00007A                REQUIRE P0IEN
   \   00007A                REQUIRE P2IEN
   \   00007A                REQUIRE _A_IEN1
   \   00007A                REQUIRE P0IFG
   \   00007A                REQUIRE P2IFG
   \   00007A                REQUIRE PICTL
   \   00007A                REQUIRE IEN2
    365          
    366          
    367          /**************************************************************************************************
    368           * @fn      HalKeyRead
    369           *
    370           * @brief   Read the current value of a key
    371           *
    372           * @param   None
    373           *
    374           * @return  keys - current keys status
    375           **************************************************************************************************/

   \                                 In  segment BANKED_CODE, align 1, keep-with-next
    376          uint8 HalKeyRead ( void )
   \                     HalKeyRead:
    377          {
   \   000000                ; Saved register size: 0
   \   000000                ; Auto size: 0
    378            uint8 keys = 0;
   \   000000   12....       LCALL   ?Subroutine2 & 0xFFFF
    379          //---pan
    380          //  if (HAL_PUSH_BUTTON1())
    381          //  {
    382          //    keys |= HAL_KEY_SW_6;
    383          //  }
    384          
    385            P0 |= 0xF0;
    386            P0DIR &= ~(0xF0);
    387            P0SEL &= ~(0xF0);
    388          
    389            if (HAL_PUSH_BUTTON1())
   \                     ??CrossCallReturnLabel_0:
   \   000003   4001         JC      ??HalKeyRead_0
    390            {
    391              keys |= HAL_KEY_KEY_1;
   \   000005   09           INC     R1
    392            }
    393            if (HAL_PUSH_BUTTON2())
   \                     ??HalKeyRead_0:
   \   000006   A285         MOV     C,0x80.5
   \   000008   4004         JC      ??HalKeyRead_1
    394            {
    395              keys |= HAL_KEY_KEY_2;
   \   00000A   E9           MOV     A,R1
   \   00000B   D2E1         SETB    0xE0 /* A   */.1
   \   00000D   F9           MOV     R1,A
    396            }  
    397            if (HAL_PUSH_BUTTON3())
   \                     ??HalKeyRead_1:
   \   00000E   A286         MOV     C,0x80.6
   \   000010   4004         JC      ??HalKeyRead_2
    398            {
    399              keys |= HAL_KEY_KEY_3;
   \   000012   E9           MOV     A,R1
   \   000013   D2E2         SETB    0xE0 /* A   */.2
   \   000015   F9           MOV     R1,A
    400            }
    401              if (HAL_PUSH_BUTTON4())
   \                     ??HalKeyRead_2:
   \   000016   A287         MOV     C,0x80.7
   \   000018   4004         JC      ??HalKeyRead_3
    402            {
    403              keys |= HAL_KEY_KEY_4;
   \   00001A   E9           MOV     A,R1
   \   00001B   D2E3         SETB    0xE0 /* A   */.3
   \   00001D   F9           MOV     R1,A
    404            }
    405            
    406          //  if ((HAL_KEY_JOY_MOVE_PORT & HAL_KEY_JOY_MOVE_BIT))  /* Key is active low */
    407          //  {
    408          //    keys |= halGetJoyKeyInput();
    409          //  }
    410          
    411            return keys;
   \                     ??HalKeyRead_3:
   \   00001E   02....       LJMP    ?BRET
   \   000021                REQUIRE _A_P0
   \   000021                REQUIRE P0SEL
   \   000021                REQUIRE P0DIR
    412          }

   \                                 In  segment BANKED_CODE, align 1, keep-with-next
   \                     ?Subroutine2:
   \   000000   7900         MOV     R1,#0x0
   \   000002   4380F0       ORL     0x80,#0xf0
   \   000005   E580         MOV     A,0x80
   \   000007   53FD0F       ANL     0xfd,#0xf
   \   00000A   E5FD         MOV     A,0xfd
   \   00000C   53F30F       ANL     0xf3,#0xf
   \   00000F   E5F3         MOV     A,0xf3
   \   000011   A284         MOV     C,0x80.4
   \   000013   22           RET
    413          
    414          
    415          /**************************************************************************************************
    416           * @fn      HalKeyPoll
    417           *
    418           * @brief   Called by hal_driver to poll the keys
    419           *
    420           * @param   None
    421           *
    422           * @return  None
    423           **************************************************************************************************/

   \                                 In  segment BANKED_CODE, align 1, keep-with-next
    424          void HalKeyPoll (void)
   \                     HalKeyPoll:
    425          {
   \   000000   C082         PUSH    DPL
   \   000002   C083         PUSH    DPH
   \   000004                ; Saved register size: 2
   \   000004                ; Auto size: 0
    426            uint8 keys = 0;
   \   000004   12....       LCALL   ?Subroutine2 & 0xFFFF
    427          
    428          //  if ((HAL_KEY_JOY_MOVE_PORT & HAL_KEY_JOY_MOVE_BIT))  /* Key is active HIGH */
    429          //  {
    430          //    keys = halGetJoyKeyInput();
    431          //  }
    432          
    433            P0 |= 0xF0;
    434            P0DIR &= ~(0xF0);
    435            P0SEL &= ~(0xF0);
    436          
    437            if (HAL_PUSH_BUTTON1())
   \                     ??CrossCallReturnLabel_1:
   \   000007   4001         JC      ??HalKeyPoll_0
    438            {
    439              keys |= HAL_KEY_KEY_1;
   \   000009   09           INC     R1
    440            }
    441            if (HAL_PUSH_BUTTON2())
   \                     ??HalKeyPoll_0:
   \   00000A   A285         MOV     C,0x80.5
   \   00000C   4004         JC      ??HalKeyPoll_1
    442            {
    443              keys |= HAL_KEY_KEY_2;
   \   00000E   E9           MOV     A,R1
   \   00000F   D2E1         SETB    0xE0 /* A   */.1
   \   000011   F9           MOV     R1,A
    444            }  
    445            if (HAL_PUSH_BUTTON3())
   \                     ??HalKeyPoll_1:
   \   000012   A286         MOV     C,0x80.6
   \   000014   4004         JC      ??HalKeyPoll_2
    446            {
    447              keys |= HAL_KEY_KEY_3;
   \   000016   E9           MOV     A,R1
   \   000017   D2E2         SETB    0xE0 /* A   */.2
   \   000019   F9           MOV     R1,A
    448            }
    449              if (HAL_PUSH_BUTTON4())
   \                     ??HalKeyPoll_2:
   \   00001A   A287         MOV     C,0x80.7
   \   00001C   4004         JC      ??HalKeyPoll_3
    450            {
    451              keys |= HAL_KEY_KEY_4;
   \   00001E   E9           MOV     A,R1
   \   00001F   D2E3         SETB    0xE0 /* A   */.3
   \   000021   F9           MOV     R1,A
    452            }
    453          
    454            
    455            /* If interrupts are not enabled, previous key status and current key status
    456             * are compared to find out if a key has changed status.
    457             */
    458            if (!Hal_KeyIntEnable)
   \                     ??HalKeyPoll_3:
   \   000022   90....       MOV     DPTR,#Hal_KeyIntEnable
   \   000025   E0           MOVX    A,@DPTR
   \   000026   7009         JNZ     ??HalKeyPoll_4
    459            {
    460              if (keys == halKeySavedKeys)
   \   000028   90....       MOV     DPTR,#halKeySavedKeys
   \   00002B   E0           MOVX    A,@DPTR
   \   00002C   69           XRL     A,R1
   \   00002D   601F         JZ      ??HalKeyPoll_5
    461              {
    462                /* Exit - since no keys have changed */
    463                return;
    464              }
    465              /* Store the current keys for comparation next time */
    466              halKeySavedKeys = keys;
   \   00002F   E9           MOV     A,R1
   \   000030   F0           MOVX    @DPTR,A
    467            }
    468            else
    469            {
    470              /* Key interrupt handled here */
    471            }
    472          
    473          //  if (HAL_PUSH_BUTTON1()) ---pan
    474          //  {
    475          //    keys |= HAL_KEY_SW_6;
    476          //  }  
    477            
    478            /* Invoke Callback if new keys were depressed */
    479            if (keys && (pHalKeyProcessFunction))
   \                     ??HalKeyPoll_4:
   \   000031   E9           MOV     A,R1
   \   000032   601A         JZ      ??HalKeyPoll_5
   \   000034   90....       MOV     DPTR,#pHalKeyProcessFunction
   \   000037   E0           MOVX    A,@DPTR
   \   000038   7002         JNZ     ??HalKeyPoll_6
   \   00003A   A3           INC     DPTR
   \   00003B   E0           MOVX    A,@DPTR
   \                     ??HalKeyPoll_6:
   \   00003C   6010         JZ      ??HalKeyPoll_5
    480            {
    481              (pHalKeyProcessFunction) (keys, HAL_KEY_STATE_NORMAL);
   \   00003E                ; Setup parameters for indirect call
   \   00003E   7A00         MOV     R2,#0x0
   \   000040   90....       MOV     DPTR,#pHalKeyProcessFunction
   \   000043   E0           MOVX    A,@DPTR
   \   000044   F8           MOV     R0,A
   \   000045   A3           INC     DPTR
   \   000046   E0           MOVX    A,@DPTR
   \   000047   F583         MOV     DPH,A
   \   000049   8882         MOV     DPL,R0
   \   00004B   12....       LCALL   ?CALL_IND
    482            }
   \                     ??HalKeyPoll_5:
   \   00004E   02....       LJMP    ?Subroutine0 & 0xFFFF
   \   000051                REQUIRE _A_P0
   \   000051                REQUIRE P0SEL
   \   000051                REQUIRE P0DIR
    483          }
    484          
    485          /**************************************************************************************************
    486           * @fn      halGetJoyKeyInput
    487           *
    488           * @brief   Map the ADC value to its corresponding key.
    489           *
    490           * @param   None
    491           *
    492           * @return  keys - current joy key status
    493           **************************************************************************************************/

   \                                 In  segment BANKED_CODE, align 1, keep-with-next
    494          uint8 halGetJoyKeyInput(void)
   \                     halGetJoyKeyInput:
    495          {
   \   000000   74F7         MOV     A,#-0x9
   \   000002   12....       LCALL   ?BANKED_ENTER_XDATA
   \   000005                ; Saved register size: 9
   \   000005                ; Auto size: 0
    496            /* The joystick control is encoded as an analog voltage.
    497             * Read the JOY_LEVEL analog value and map it to joy movement.
    498             */
    499            uint8 adc;
    500            uint8 ksave0 = 0;
   \   000005   7E00         MOV     R6,#0x0
    501            uint8 ksave1;
    502          
    503            /* Keep on reading the ADC until two consecutive key decisions are the same. */
    504            do
    505            {
    506              ksave1 = ksave0;    /* save previouse key reading */
   \                     ??halGetJoyKeyInput_0:
   \   000007   EE           MOV     A,R6
   \   000008   FF           MOV     R7,A
    507          
    508              adc = HalAdcRead (HAL_KEY_JOY_CHN, HAL_ADC_RESOLUTION_8);
   \   000009                ; Setup parameters for call to function HalAdcRead
   \   000009   7A01         MOV     R2,#0x1
   \   00000B   7906         MOV     R1,#0x6
   \   00000D   12....       LCALL   ??HalAdcRead?relay
    509          
    510              if ((adc >= 2) && (adc <= 38))
   \   000010   74FE         MOV     A,#-0x2
   \   000012   2A           ADD     A,R2
   \   000013   C3           CLR     C
   \   000014   9425         SUBB    A,#0x25
   \   000016   5005         JNC     ??halGetJoyKeyInput_1
    511              {
    512                 ksave0 |= HAL_KEY_UP;
   \   000018   EE           MOV     A,R6
   \   000019   D2E0         SETB    0xE0 /* A   */.0
   \   00001B   8032         SJMP    ??halGetJoyKeyInput_2
    513              }
    514              else if ((adc >= 74) && (adc <= 88))
   \                     ??halGetJoyKeyInput_1:
   \   00001D   74B6         MOV     A,#-0x4a
   \   00001F   2A           ADD     A,R2
   \   000020   C3           CLR     C
   \   000021   940F         SUBB    A,#0xf
   \   000023   5005         JNC     ??halGetJoyKeyInput_3
    515              {
    516                ksave0 |= HAL_KEY_RIGHT;
   \   000025   EE           MOV     A,R6
   \   000026   D2E1         SETB    0xE0 /* A   */.1
   \   000028   8025         SJMP    ??halGetJoyKeyInput_2
    517              }
    518              else if ((adc >= 60) && (adc <= 73))
   \                     ??halGetJoyKeyInput_3:
   \   00002A   74C4         MOV     A,#-0x3c
   \   00002C   2A           ADD     A,R2
   \   00002D   C3           CLR     C
   \   00002E   940E         SUBB    A,#0xe
   \   000030   5005         JNC     ??halGetJoyKeyInput_4
    519              {
    520                ksave0 |= HAL_KEY_LEFT;
   \   000032   EE           MOV     A,R6
   \   000033   D2E3         SETB    0xE0 /* A   */.3
   \   000035   8018         SJMP    ??halGetJoyKeyInput_2
    521              }
    522              else if ((adc >= 39) && (adc <= 59))
   \                     ??halGetJoyKeyInput_4:
   \   000037   74D9         MOV     A,#-0x27
   \   000039   2A           ADD     A,R2
   \   00003A   C3           CLR     C
   \   00003B   9415         SUBB    A,#0x15
   \   00003D   5005         JNC     ??halGetJoyKeyInput_5
    523              {
    524                ksave0 |= HAL_KEY_DOWN;
   \   00003F   EE           MOV     A,R6
   \   000040   D2E4         SETB    0xE0 /* A   */.4
   \   000042   800B         SJMP    ??halGetJoyKeyInput_2
    525              }
    526              else if ((adc >= 89) && (adc <= 100))
   \                     ??halGetJoyKeyInput_5:
   \   000044   74A7         MOV     A,#-0x59
   \   000046   2A           ADD     A,R2
   \   000047   C3           CLR     C
   \   000048   940C         SUBB    A,#0xc
   \   00004A   5004         JNC     ??halGetJoyKeyInput_6
    527              {
    528                ksave0 |= HAL_KEY_CENTER;
   \   00004C   EE           MOV     A,R6
   \   00004D   D2E2         SETB    0xE0 /* A   */.2
   \                     ??halGetJoyKeyInput_2:
   \   00004F   FE           MOV     R6,A
    529              }
    530            } while (ksave0 != ksave1);
   \                     ??halGetJoyKeyInput_6:
   \   000050   EF           MOV     A,R7
   \   000051   6E           XRL     A,R6
   \   000052   70B3         JNZ     ??halGetJoyKeyInput_0
    531          
    532            return ksave0;
   \   000054   EE           MOV     A,R6
   \   000055   F9           MOV     R1,A
   \   000056   7F01         MOV     R7,#0x1
   \   000058   02....       LJMP    ?BANKED_LEAVE_XDATA
    533          }
    534          
    535          
    536          
    537          
    538          
    539          /**************************************************************************************************
    540           * @fn      halProcessKeyInterrupt
    541           *
    542           * @brief   Checks to see if it's a valid key interrupt, saves interrupt driven key states for
    543           *          processing by HalKeyRead(), and debounces keys by scheduling HalKeyRead() 25ms later.
    544           *
    545           * @param
    546           *
    547           * @return
    548           **************************************************************************************************/

   \                                 In  segment BANKED_CODE, align 1, keep-with-next
    549          void halProcessKeyInterrupt (void)
   \                     halProcessKeyInterrupt:
    550          {
   \   000000   C082         PUSH    DPL
   \   000002   C083         PUSH    DPH
   \   000004                ; Saved register size: 2
   \   000004                ; Auto size: 0
    551            bool valid=FALSE;
   \   000004   7A00         MOV     R2,#0x0
    552          
    553            if (HAL_KEY_SW_6_PXIFG & HAL_KEY_SW_6_BIT)  /* Interrupt Flag has been set */
   \   000006   E589         MOV     A,0x89
   \   000008   A2E1         MOV     C,0xE0 /* A   */.1
   \   00000A   5004         JNC     ??halProcessKeyInterrupt_0
    554            {
    555              HAL_KEY_SW_6_PXIFG &= ~(HAL_KEY_SW_6_BIT); /* Clear Interrupt Flag */
   \   00000C   5389FD       ANL     0x89,#0xfd
    556              valid = TRUE;
   \   00000F   0A           INC     R2
    557            }
    558          
    559            if (HAL_KEY_KEY_1_PXIFG & HAL_KEY_KEY_1_BIT)  /* Interrupt Flag has been set */
   \                     ??halProcessKeyInterrupt_0:
   \   000010   E589         MOV     A,0x89
   \   000012   A2E4         MOV     C,0xE0 /* A   */.4
   \   000014   5005         JNC     ??halProcessKeyInterrupt_1
    560            {
    561              HAL_KEY_KEY_1_PXIFG &= ~(HAL_KEY_KEY_1_BIT); /* Clear Interrupt Flag */
   \   000016   5389EF       ANL     0x89,#0xef
    562              valid = TRUE;
   \   000019   7A01         MOV     R2,#0x1
    563            }  
    564            if (HAL_KEY_KEY_2_PXIFG & HAL_KEY_KEY_2_BIT)  /* Interrupt Flag has been set */
   \                     ??halProcessKeyInterrupt_1:
   \   00001B   E589         MOV     A,0x89
   \   00001D   A2E5         MOV     C,0xE0 /* A   */.5
   \   00001F   5005         JNC     ??halProcessKeyInterrupt_2
    565            {
    566              HAL_KEY_KEY_2_PXIFG &= ~(HAL_KEY_KEY_2_BIT); /* Clear Interrupt Flag */
   \   000021   5389DF       ANL     0x89,#0xdf
    567              valid = TRUE;
   \   000024   7A01         MOV     R2,#0x1
    568            }  
    569            if (HAL_KEY_KEY_3_PXIFG & HAL_KEY_KEY_3_BIT)  /* Interrupt Flag has been set */
   \                     ??halProcessKeyInterrupt_2:
   \   000026   E589         MOV     A,0x89
   \   000028   A2E6         MOV     C,0xE0 /* A   */.6
   \   00002A   5005         JNC     ??halProcessKeyInterrupt_3
    570            {
    571              HAL_KEY_KEY_3_PXIFG &= ~(HAL_KEY_KEY_3_BIT); /* Clear Interrupt Flag */
   \   00002C   5389BF       ANL     0x89,#0xbf
    572              valid = TRUE;
   \   00002F   7A01         MOV     R2,#0x1
    573            }  
    574            if (HAL_KEY_KEY_4_PXIFG & HAL_KEY_KEY_4_BIT)  /* Interrupt Flag has been set */
   \                     ??halProcessKeyInterrupt_3:
   \   000031   E589         MOV     A,0x89
   \   000033   A2E7         MOV     C,0xE0 /* A   */.7
   \   000035   5005         JNC     ??halProcessKeyInterrupt_4
    575            {
    576              HAL_KEY_KEY_4_PXIFG &= ~(HAL_KEY_KEY_4_BIT); /* Clear Interrupt Flag */
   \   000037   53897F       ANL     0x89,#0x7f
    577              valid = TRUE;
   \   00003A   7A01         MOV     R2,#0x1
    578            }  
    579            
    580            if (HAL_KEY_JOY_MOVE_PXIFG & HAL_KEY_JOY_MOVE_BIT)  /* Interrupt Flag has been set */
   \                     ??halProcessKeyInterrupt_4:
   \   00003C   E58B         MOV     A,0x8b
   \   00003E   A2E0         MOV     C,0xE0 /* A   */.0
   \   000040   5005         JNC     ??halProcessKeyInterrupt_5
    581            {
    582              HAL_KEY_JOY_MOVE_PXIFG &= ~(HAL_KEY_JOY_MOVE_BIT); /* Clear Interrupt Flag */
   \   000042   538BFE       ANL     0x8b,#0xfe
    583              valid = TRUE;
   \   000045   8003         SJMP    ??halProcessKeyInterrupt_6
    584            }
    585          
    586            if (valid)
   \                     ??halProcessKeyInterrupt_5:
   \   000047   EA           MOV     A,R2
   \   000048   6010         JZ      ??halProcessKeyInterrupt_7
    587            {
    588              osal_start_timerEx (Hal_TaskID, HAL_KEY_EVENT, HAL_KEY_DEBOUNCE_VALUE);
   \                     ??halProcessKeyInterrupt_6:
   \   00004A                ; Setup parameters for call to function osal_start_timerEx
   \   00004A   7C19         MOV     R4,#0x19
   \   00004C   7D00         MOV     R5,#0x0
   \   00004E   7A01         MOV     R2,#0x1
   \   000050   7B00         MOV     R3,#0x0
   \   000052   90....       MOV     DPTR,#Hal_TaskID
   \   000055   E0           MOVX    A,@DPTR
   \   000056   F9           MOV     R1,A
   \   000057   12....       LCALL   ??osal_start_timerEx?relay
    589            }
    590          }
   \                     ??halProcessKeyInterrupt_7:
   \   00005A                REQUIRE ?Subroutine0
   \   00005A                REQUIRE P0IFG
   \   00005A                REQUIRE P2IFG
   \   00005A                ; // Fall through to label ?Subroutine0
    591          
    592          /**************************************************************************************************
    593           * @fn      HalKeyEnterSleep
    594           *
    595           * @brief  - Get called to enter sleep mode
    596           *
    597           * @param
    598           *
    599           * @return
    600           **************************************************************************************************/

   \                                 In  segment BANKED_CODE, align 1, keep-with-next
    601          void HalKeyEnterSleep ( void )
   \                     HalKeyEnterSleep:
    602          {
   \   000000                ; Saved register size: 0
   \   000000                ; Auto size: 0
    603          }
   \   000000   02....       LJMP    ?BRET
    604          
    605          /**************************************************************************************************
    606           * @fn      HalKeyExitSleep
    607           *
    608           * @brief   - Get called when sleep is over
    609           *
    610           * @param
    611           *
    612           * @return  - return saved keys
    613           **************************************************************************************************/

   \                                 In  segment BANKED_CODE, align 1, keep-with-next
    614          uint8 HalKeyExitSleep ( void )
   \                     HalKeyExitSleep:
    615          {
   \   000000   C082         PUSH    DPL
   \   000002   C083         PUSH    DPH
   \   000004                ; Saved register size: 2
   \   000004                ; Auto size: 0
    616            /* Wake up and read keys */
    617            return ( HalKeyRead () );
   \   000004                ; Setup parameters for call to function HalKeyRead
   \   000004   12....       LCALL   ??HalKeyRead?relay
   \   000007   80..         SJMP    ?Subroutine0
    618          }
    619          
    620          /***************************************************************************************************
    621           *                                    INTERRUPT SERVICE ROUTINE
    622           ***************************************************************************************************/
    623          
    624          /**************************************************************************************************
    625           * @fn      halKeyPort0Isr
    626           *
    627           * @brief   Port0 ISR
    628           *
    629           * @param
    630           *
    631           * @return
    632           **************************************************************************************************/

   \                                 In  segment NEAR_CODE, align 1, keep-with-next
    633          HAL_ISR_FUNCTION( halKeyPort0Isr, P0INT_VECTOR )
   \                     halKeyPort0Isr:
    634          {
   \   000000   C0E0         PUSH    A
   \   000002   74F2         MOV     A,#-0xe
   \   000004   12....       LCALL   ?INTERRUPT_ENTER_XSP
   \   000007                ; Saved register size: 15
   \   000007                ; Auto size: 0
    635            HAL_ENTER_ISR();
   \   000007   A2AF         MOV     C,0xa8.7
   \   000009   E4           CLR     A
   \   00000A   92E0         MOV     0xE0 /* A   */.0,C
   \   00000C   FE           MOV     R6,A
   \   00000D   D2AF         SETB    0xa8.7
    636          
    637            if (HAL_KEY_SW_6_PXIFG & HAL_KEY_SW_6_BIT)
   \   00000F   E589         MOV     A,0x89
   \   000011   A2E1         MOV     C,0xE0 /* A   */.1
   \   000013   5003         JNC     ??halKeyPort0Isr_0
    638            {
    639              halProcessKeyInterrupt();
   \   000015                ; Setup parameters for call to function halProcessKeyInterrupt
   \   000015   12....       LCALL   ??halProcessKeyInterrupt?relay
    640            }
    641          
    642            /*
    643              Clear the CPU interrupt flag for Port_0
    644              PxIFG has to be cleared before PxIF
    645            */
    646            HAL_KEY_SW_6_PXIFG = 0;
   \                     ??halKeyPort0Isr_0:
   \   000018   758900       MOV     0x89,#0x0
    647            HAL_KEY_CPU_PORT_0_IF = 0;
   \   00001B   C2C5         CLR     0xc0.5
    648            
    649            CLEAR_SLEEP_MODE();
    650            HAL_EXIT_ISR();
   \   00001D                REQUIRE ?Subroutine1
   \   00001D                REQUIRE _A_IEN0
   \   00001D                REQUIRE _A_IRCON
   \   00001D                REQUIRE P0IFG
   \   00001D                ; // Fall through to label ?Subroutine1
    651          }

   \                                 In  segment NEAR_CODE, align 1, keep-with-next
   \                     ?Subroutine1:
   \   000000   EE           MOV     A,R6
   \   000001   A2E0         MOV     C,0xE0 /* A   */.0
   \   000003   92AF         MOV     0xa8.7,C
   \   000005   7F01         MOV     R7,#0x1
   \   000007   02....       LJMP    ?INTERRUPT_LEAVE_XSP
    652          
    653          
    654          /**************************************************************************************************
    655           * @fn      halKeyPort2Isr
    656           *
    657           * @brief   Port2 ISR
    658           *
    659           * @param
    660           *
    661           * @return
    662           **************************************************************************************************/

   \                                 In  segment NEAR_CODE, align 1, keep-with-next
    663          HAL_ISR_FUNCTION( halKeyPort2Isr, P2INT_VECTOR )
   \                     halKeyPort2Isr:
    664          {
   \   000000   C0E0         PUSH    A
   \   000002   74F2         MOV     A,#-0xe
   \   000004   12....       LCALL   ?INTERRUPT_ENTER_XSP
   \   000007                ; Saved register size: 15
   \   000007                ; Auto size: 0
    665            HAL_ENTER_ISR();
   \   000007   A2AF         MOV     C,0xa8.7
   \   000009   E4           CLR     A
   \   00000A   92E0         MOV     0xE0 /* A   */.0,C
   \   00000C   FE           MOV     R6,A
   \   00000D   D2AF         SETB    0xa8.7
    666            
    667            if (HAL_KEY_JOY_MOVE_PXIFG & HAL_KEY_JOY_MOVE_BIT)
   \   00000F   E58B         MOV     A,0x8b
   \   000011   A2E0         MOV     C,0xE0 /* A   */.0
   \   000013   5003         JNC     ??halKeyPort2Isr_0
    668            {
    669              halProcessKeyInterrupt();
   \   000015                ; Setup parameters for call to function halProcessKeyInterrupt
   \   000015   12....       LCALL   ??halProcessKeyInterrupt?relay
    670            }
    671          
    672            /*
    673              Clear the CPU interrupt flag for Port_2
    674              PxIFG has to be cleared before PxIF
    675              Notes: P2_1 and P2_2 are debug lines.
    676            */
    677            HAL_KEY_JOY_MOVE_PXIFG = 0;
   \                     ??halKeyPort2Isr_0:
   \   000018   758B00       MOV     0x8b,#0x0
    678            HAL_KEY_CPU_PORT_2_IF = 0;
   \   00001B   C2E8         CLR     0xe8.0
    679          
    680            CLEAR_SLEEP_MODE();
    681            HAL_EXIT_ISR();
   \   00001D   80..         SJMP    ?Subroutine1
   \   00001F                REQUIRE _A_IEN0
   \   00001F                REQUIRE P2IFG
   \   00001F                REQUIRE _A_IRCON2
    682          }

   \                                 In  segment INTVEC, offset 0x33, root
   \                     `??halKeyPort2Isr??INTVEC 51`:
   \   000033   02....       LJMP       (halKeyPort2Isr)

   \                                 In  segment INTVEC, offset 0x6b, root
   \                     `??halKeyPort0Isr??INTVEC 107`:
   \   00006B   02....       LJMP       (halKeyPort0Isr)

   \                                 In  segment BANK_RELAYS, align 1
   \                     ??HalKeyInit?relay:
   \   000000   12....       LCALL   ?BDISPATCH
   \   000003   ......       DC24    HalKeyInit

   \                                 In  segment BANK_RELAYS, align 1
   \                     ??HalKeyConfig?relay:
   \   000000   12....       LCALL   ?BDISPATCH
   \   000003   ......       DC24    HalKeyConfig

   \                                 In  segment BANK_RELAYS, align 1
   \                     ??HalKeyRead?relay:
   \   000000   12....       LCALL   ?BDISPATCH
   \   000003   ......       DC24    HalKeyRead

   \                                 In  segment BANK_RELAYS, align 1
   \                     ??HalKeyPoll?relay:
   \   000000   12....       LCALL   ?BDISPATCH
   \   000003   ......       DC24    HalKeyPoll

   \                                 In  segment BANK_RELAYS, align 1
   \                     ??halGetJoyKeyInput?relay:
   \   000000   12....       LCALL   ?BDISPATCH
   \   000003   ......       DC24    halGetJoyKeyInput

   \                                 In  segment BANK_RELAYS, align 1
   \                     ??halProcessKeyInterrupt?relay:
   \   000000   12....       LCALL   ?BDISPATCH
   \   000003   ......       DC24    halProcessKeyInterrupt

   \                                 In  segment BANK_RELAYS, align 1
   \                     ??HalKeyEnterSleep?relay:
   \   000000   12....       LCALL   ?BDISPATCH
   \   000003   ......       DC24    HalKeyEnterSleep

   \                                 In  segment BANK_RELAYS, align 1
   \                     ??HalKeyExitSleep?relay:
   \   000000   12....       LCALL   ?BDISPATCH
   \   000003   ......       DC24    HalKeyExitSleep
    683          
    684          #else
    685          
    686          
    687          void HalKeyInit(void){}
    688          void HalKeyConfig(bool interruptEnable, halKeyCBack_t cback){}
    689          uint8 HalKeyRead(void){ return 0;}
    690          void HalKeyPoll(void){}
    691          
    692          #endif /* HAL_KEY */
    693          
    694          
    695          
    696          
    697          
    698          /**************************************************************************************************
    699          **************************************************************************************************/
    700          
    701          
    702          

   Maximum stack usage in bytes:

     Function                    ISTACK PSTACK XSTACK
     --------                    ------ ------ ------
     HalKeyConfig                    0      0      9
       -> osal_stop_timerEx          0      0     18
       -> osal_set_event             0      0     18
     HalKeyEnterSleep                0      0      0
     HalKeyExitSleep                 2      0      0
       -> HalKeyRead                 4      0      0
     HalKeyInit                      2      0      0
     HalKeyPoll                      2      0      0
     HalKeyRead                      0      0      0
     halGetJoyKeyInput               0      0      9
       -> HalAdcRead                 0      0     18
     halKeyPort0Isr                 15      0      0
       -> halProcessKeyInterrupt    30      0      0
     halKeyPort2Isr                 15      0      0
       -> halProcessKeyInterrupt    30      0      0
     halProcessKeyInterrupt          2      0      0
       -> osal_start_timerEx         4      0      0


   Segment part sizes:

     Function/Label                 Bytes
     --------------                 -----
     _A_P0                             1
     P0IFG                             1
     P2IFG                             1
     PICTL                             1
     IEN2                              1
     _A_IEN0                           1
     P0IEN                             1
     P2IEN                             1
     _A_IEN1                           1
     _A_IRCON                          1
     _A_IRCON2                         1
     P0SEL                             1
     P0DIR                             1
     halKeySavedKeys                   1
     pHalKeyProcessFunction            2
     HalKeyConfigured                  1
     Hal_KeyIntEnable                  1
     HalKeyInit                       46
     ?Subroutine0                      7
     HalKeyConfig                    122
     HalKeyRead                       33
     ?Subroutine2                     20
     HalKeyPoll                       81
     halGetJoyKeyInput                91
     halProcessKeyInterrupt           90
     HalKeyEnterSleep                  3
     HalKeyExitSleep                   9
     halKeyPort0Isr                   29
     ?Subroutine1                     10
     halKeyPort2Isr                   31
     ??halKeyPort2Isr??INTVEC 51       3
     ??halKeyPort0Isr??INTVEC 107      3
     ??HalKeyInit?relay                6
     ??HalKeyConfig?relay              6
     ??HalKeyRead?relay                6
     ??HalKeyPoll?relay                6
     ??halGetJoyKeyInput?relay         6
     ??halProcessKeyInterrupt?relay    6
     ??HalKeyEnterSleep?relay          6
     ??HalKeyExitSleep?relay           6

 
 502 bytes in segment BANKED_CODE
  48 bytes in segment BANK_RELAYS
   6 bytes in segment INTVEC
  70 bytes in segment NEAR_CODE
  13 bytes in segment SFR_AN
   5 bytes in segment XDATA_Z
 
 620 bytes of CODE  memory (+  6 bytes shared)
   0 bytes of DATA  memory (+ 13 bytes shared)
   5 bytes of XDATA memory

Errors: none
Warnings: none
