///////////////////////////////////////////////////////////////////////////////
//                                                                            /
// IAR C/C++ Compiler V7.60.1.40026 for 8051            11/Jun/2011  21:35:55 /
// Copyright (C) 2004-2010 IAR Systems AB.                                    /
//                                                                            /
//    Core               =  plain                                             /
//    Code model         =  banked                                            /
//    Data model         =  large                                             /
//    Calling convention =  xdata reentrant                                   /
//    Constant location  =  data_rom                                          /
//    Dptr setup         =  1,16                                              /
//    Source file        =  D:\Texas Instruments\ZStack-CC2530-2.4.0-1.4.0\Pr /
//                          ojects\zstack\Utilities\Transmit\Source\TransmitA /
//                          pp.c                                              /
//    Command line       =  -f "D:\Texas Instruments\ZStack-CC2530-2.4.0-1.4. /
//                          0\Projects\zstack\Utilities\Transmit\CC2530DB\..\ /
//                          ..\..\Tools\CC2530DB\f8wCoord.cfg" (-DCPU32MHZ    /
//                          -DROOT=__near_func -DMAC_CFG_APP_PENDING_QUEUE=TR /
//                          UE -DMAC_CFG_TX_DATA_MAX=5 -DMAC_CFG_TX_MAX=8     /
//                          -DMAC_CFG_RX_MAX=5 -DZDO_COORDINATOR -DRTR_NWK)   /
//                          -f "D:\Texas Instruments\ZStack-CC2530-2.4.0-1.4. /
//                          0\Projects\zstack\Utilities\Transmit\CC2530DB\..\ /
//                          ..\..\Tools\CC2530DB\f8wConfig.cfg" (-DZIGBEEPRO  /
//                          -DSECURE=0 -DZG_SECURE_DYNAMIC=0 -DREFLECTOR      /
//                          -DDEFAULT_CHANLIST=0x00000800                     /
//                          -DZDAPP_CONFIG_PAN_ID=0xFFFF                      /
//                          -DNWK_START_DELAY=100 -DEXTENDED_JOINING_RANDOM_M /
//                          ASK=0x007F -DBEACON_REQUEST_DELAY=100             /
//                          -DBEACON_REQ_DELAY_MASK=0x00FF                    /
//                          -DLINK_STATUS_JITTER_MASK=0x007F                  /
//                          -DROUTE_EXPIRY_TIME=30 -DAPSC_ACK_WAIT_DURATION_P /
//                          OLLED=3000 -DNWK_INDIRECT_MSG_TIMEOUT=7           /
//                          -DMAX_RREQ_ENTRIES=8 -DAPSC_MAX_FRAME_RETRIES=3   /
//                          -DNWK_MAX_DATA_RETRIES=2                          /
//                          -DMAX_POLL_FAILURE_RETRIES=2 -DMAX_BCAST=9        /
//                          -DAPS_MAX_GROUPS=16 -DMAX_RTG_ENTRIES=40          /
//                          -DNWK_MAX_BINDING_ENTRIES=4                       /
//                          -DMAX_BINDING_CLUSTER_IDS=4                       /
//                          "-DDEFAULT_KEY={0x01, 0x03, 0x05, 0x07, 0x09,     /
//                          0x0B, 0x0D, 0x0F, 0x00, 0x02, 0x04, 0x06, 0x08,   /
//                          0x0A, 0x0C, 0x0D}" -DMAC_MAX_FRAME_SIZE=116       /
//                          -DZDNWKMGR_MIN_TRANSMISSIONS=20 "-DCONST=const    /
//                          __code" -DGENERIC=__generic                       /
//                          -DRFD_RCVC_ALWAYS_ON=FALSE -DPOLL_RATE=1000       /
//                          -DQUEUED_POLL_RATE=100 -DRESPONSE_POLL_RATE=100)  /
//                          -DREJOIN_POLL_RATE=440 "D:\Texas                  /
//                          Instruments\ZStack-CC2530-2.4.0-1.4.0\Projects\zs /
//                          tack\Utilities\Transmit\Source\TransmitApp.c" -D  /
//                          MT_TASK -D ZTOOL_P1 -D MT_SYS_FUNC -D             /
//                          MT_ZDO_FUNC -D LCD_SUPPORTED=DEBUG -D             /
//                          ZDNWKMGR_MIN_TRANSMISSIONS=0 -lC "D:\Texas        /
//                          Instruments\ZStack-CC2530-2.4.0-1.4.0\Projects\zs /
//                          tack\Utilities\Transmit\CC2530DB\CoordinatorEB\Li /
//                          st\" -lA "D:\Texas Instruments\ZStack-CC2530-2.4. /
//                          0-1.4.0\Projects\zstack\Utilities\Transmit\CC2530 /
//                          DB\CoordinatorEB\List\" --diag_suppress           /
//                          Pe001,Pa010 -o "D:\Texas                          /
//                          Instruments\ZStack-CC2530-2.4.0-1.4.0\Projects\zs /
//                          tack\Utilities\Transmit\CC2530DB\CoordinatorEB\Ob /
//                          j\" -e --require_prototypes --no_code_motion      /
//                          --debug --core=plain --dptr=16,1                  /
//                          --data_model=large --code_model=banked            /
//                          --calling_convention=xdata_reentrant              /
//                          --place_constants=data_rom --nr_virtual_regs 16   /
//                          -I "D:\Texas Instruments\ZStack-CC2530-2.4.0-1.4. /
//                          0\Projects\zstack\Utilities\Transmit\CC2530DB\"   /
//                          -I "D:\Texas Instruments\ZStack-CC2530-2.4.0-1.4. /
//                          0\Projects\zstack\Utilities\Transmit\CC2530DB\..\ /
//                          Source\" -I "D:\Texas Instruments\ZStack-CC2530-2 /
//                          .4.0-1.4.0\Projects\zstack\Utilities\Transmit\CC2 /
//                          530DB\..\..\..\ZMain\TI2530DB\" -I "D:\Texas      /
//                          Instruments\ZStack-CC2530-2.4.0-1.4.0\Projects\zs /
//                          tack\Utilities\Transmit\CC2530DB\..\..\..\..\..\C /
//                          omponents\hal\include\" -I "D:\Texas              /
//                          Instruments\ZStack-CC2530-2.4.0-1.4.0\Projects\zs /
//                          tack\Utilities\Transmit\CC2530DB\..\..\..\..\..\C /
//                          omponents\hal\target\CC2530EB\" -I "D:\Texas      /
//                          Instruments\ZStack-CC2530-2.4.0-1.4.0\Projects\zs /
//                          tack\Utilities\Transmit\CC2530DB\..\..\..\..\..\C /
//                          omponents\mac\include\" -I "D:\Texas              /
//                          Instruments\ZStack-CC2530-2.4.0-1.4.0\Projects\zs /
//                          tack\Utilities\Transmit\CC2530DB\..\..\..\..\..\C /
//                          omponents\mac\high_level\" -I "D:\Texas           /
//                          Instruments\ZStack-CC2530-2.4.0-1.4.0\Projects\zs /
//                          tack\Utilities\Transmit\CC2530DB\..\..\..\..\..\C /
//                          omponents\mac\low_level\srf04\" -I "D:\Texas      /
//                          Instruments\ZStack-CC2530-2.4.0-1.4.0\Projects\zs /
//                          tack\Utilities\Transmit\CC2530DB\..\..\..\..\..\C /
//                          omponents\mac\low_level\srf04\single_chip\" -I    /
//                          "D:\Texas Instruments\ZStack-CC2530-2.4.0-1.4.0\P /
//                          rojects\zstack\Utilities\Transmit\CC2530DB\..\..\ /
//                          ..\..\..\Components\mt\" -I "D:\Texas             /
//                          Instruments\ZStack-CC2530-2.4.0-1.4.0\Projects\zs /
//                          tack\Utilities\Transmit\CC2530DB\..\..\..\..\..\C /
//                          omponents\osal\include\" -I "D:\Texas             /
//                          Instruments\ZStack-CC2530-2.4.0-1.4.0\Projects\zs /
//                          tack\Utilities\Transmit\CC2530DB\..\..\..\..\..\C /
//                          omponents\osal\mcu\ccsoc\" -I "D:\Texas           /
//                          Instruments\ZStack-CC2530-2.4.0-1.4.0\Projects\zs /
//                          tack\Utilities\Transmit\CC2530DB\..\..\..\..\..\C /
//                          omponents\services\saddr\" -I "D:\Texas           /
//                          Instruments\ZStack-CC2530-2.4.0-1.4.0\Projects\zs /
//                          tack\Utilities\Transmit\CC2530DB\..\..\..\..\..\C /
//                          omponents\services\sdata\" -I "D:\Texas           /
//                          Instruments\ZStack-CC2530-2.4.0-1.4.0\Projects\zs /
//                          tack\Utilities\Transmit\CC2530DB\..\..\..\..\..\C /
//                          omponents\stack\af\" -I "D:\Texas                 /
//                          Instruments\ZStack-CC2530-2.4.0-1.4.0\Projects\zs /
//                          tack\Utilities\Transmit\CC2530DB\..\..\..\..\..\C /
//                          omponents\stack\nwk\" -I "D:\Texas                /
//                          Instruments\ZStack-CC2530-2.4.0-1.4.0\Projects\zs /
//                          tack\Utilities\Transmit\CC2530DB\..\..\..\..\..\C /
//                          omponents\stack\sapi\" -I "D:\Texas               /
//                          Instruments\ZStack-CC2530-2.4.0-1.4.0\Projects\zs /
//                          tack\Utilities\Transmit\CC2530DB\..\..\..\..\..\C /
//                          omponents\stack\sec\" -I "D:\Texas                /
//                          Instruments\ZStack-CC2530-2.4.0-1.4.0\Projects\zs /
//                          tack\Utilities\Transmit\CC2530DB\..\..\..\..\..\C /
//                          omponents\stack\sys\" -I "D:\Texas                /
//                          Instruments\ZStack-CC2530-2.4.0-1.4.0\Projects\zs /
//                          tack\Utilities\Transmit\CC2530DB\..\..\..\..\..\C /
//                          omponents\stack\zdo\" -I "D:\Texas                /
//                          Instruments\ZStack-CC2530-2.4.0-1.4.0\Projects\zs /
//                          tack\Utilities\Transmit\CC2530DB\..\..\..\..\..\C /
//                          omponents\zmac\" -I "D:\Texas                     /
//                          Instruments\ZStack-CC2530-2.4.0-1.4.0\Projects\zs /
//                          tack\Utilities\Transmit\CC2530DB\..\..\..\..\..\C /
//                          omponents\zmac\f8w\" -I "D:\Program Files\IAR     /
//                          Systems\Embedded Workbench 5.4\8051\INC\" -I      /
//                          "D:\Program Files\IAR Systems\Embedded Workbench  /
//                          5.4\8051\INC\CLIB\" -Ohz                          /
//    List file          =  D:\Texas Instruments\ZStack-CC2530-2.4.0-1.4.0\Pr /
//                          ojects\zstack\Utilities\Transmit\CC2530DB\Coordin /
//                          atorEB\List\TransmitApp.s51                       /
//                                                                            /
//                                                                            /
///////////////////////////////////////////////////////////////////////////////

        NAME TransmitApp

        RTMODEL "__calling_convention", "xdata_reentrant"
        RTMODEL "__code_model", "banked"
        RTMODEL "__core", "plain"
        RTMODEL "__data_model", "large"
        RTMODEL "__dptr_size", "16"
        RTMODEL "__extended_stack", "disabled"
        RTMODEL "__location_for_constants", "data"
        RTMODEL "__number_of_dptrs", "1"
        RTMODEL "__rt_version", "1"

        RSEG DOVERLAY:DATA:NOROOT(0)
        RSEG IOVERLAY:IDATA:NOROOT(0)
        RSEG ISTACK:IDATA:NOROOT(0)
        RSEG PSTACK:XDATA:NOROOT(0)
        RSEG XSTACK:XDATA:NOROOT(0)

        EXTERN ?ALLOC_XSTACK8
        EXTERN ?BANKED_ENTER_XDATA
        EXTERN ?BANKED_LEAVE_XDATA
        EXTERN ?BDISPATCH
        EXTERN ?BRET
        EXTERN ?DEALLOC_XSTACK8
        EXTERN ?L_ADD
        EXTERN ?L_ADD_TO_X
        EXTERN ?L_EQ_X
        EXTERN ?L_MOV_TO_X
        EXTERN ?L_MOV_X
        EXTERN ?L_MUL
        EXTERN ?L_SUB_X
        EXTERN ?PUSH_XSTACK_I_ONE
        EXTERN ?PUSH_XSTACK_I_TWO
        EXTERN ?UC_SWITCH_SPARSE
        EXTERN ?UL_DIV_MOD
        EXTERN ?UL_GT
        EXTERN ?UL_SHR
        EXTERN ?US_SWITCH_SPARSE
        EXTERN ?V0
        EXTERN ?XSP
        EXTERN ?XSTACK_DISP0_8
        EXTERN __INIT_XDATA_Z

        PUBLIC ??TransmitApp_ChangeState?relay
        FUNCTION ??TransmitApp_ChangeState?relay,0203H
        PUBLIC ??TransmitApp_DisplayResults?relay
        FUNCTION ??TransmitApp_DisplayResults?relay,0203H
        PUBLIC ??TransmitApp_HandleKeys?relay
        FUNCTION ??TransmitApp_HandleKeys?relay,0203H
        PUBLIC ??TransmitApp_Init?relay
        FUNCTION ??TransmitApp_Init?relay,0203H
        PUBLIC ??TransmitApp_MessageMSGCB?relay
        FUNCTION ??TransmitApp_MessageMSGCB?relay,0203H
        PUBLIC ??TransmitApp_ProcessEvent?relay
        FUNCTION ??TransmitApp_ProcessEvent?relay,0203H
        PUBLIC ??TransmitApp_ProcessZDOMsgs?relay
        FUNCTION ??TransmitApp_ProcessZDOMsgs?relay,0203H
        PUBLIC ??TransmitApp_SendTheMessage?relay
        FUNCTION ??TransmitApp_SendTheMessage?relay,0203H
        PUBLIC ??TransmitApp_SetSendEvt?relay
        FUNCTION ??TransmitApp_SetSendEvt?relay,0203H
        PUBLIC ??uart_sent?relay
        FUNCTION ??uart_sent?relay,0203H
        PUBWEAK P0DIR
        PUBWEAK P1DIR
        PUBLIC TransmitApp_ChangeState
        FUNCTION TransmitApp_ChangeState,021203H
        ARGFRAME XSTACK, 0, STACK
        LOCFRAME ISTACK, 2, STACK
        PUBLIC TransmitApp_ClusterList
        PUBLIC TransmitApp_DisplayResults
        FUNCTION TransmitApp_DisplayResults,021203H
        ARGFRAME XSTACK, 0, STACK
        LOCFRAME ISTACK, 1, STACK
        LOCFRAME XSTACK, 45, STACK
        PUBLIC TransmitApp_DstAddr
        PUBLIC TransmitApp_HandleKeys
        FUNCTION TransmitApp_HandleKeys,021203H
        ARGFRAME XSTACK, 12, STACK
        ARGFRAME IOVERLAY, 0, STATIC
        ARGFRAME DOVERLAY, 0, STATIC
        LOCFRAME ISTACK, 1, STACK
        LOCFRAME XSTACK, 29, STACK
        PUBLIC TransmitApp_Init
        FUNCTION TransmitApp_Init,021203H
        ARGFRAME XSTACK, 0, STACK
        LOCFRAME ISTACK, 1, STACK
        LOCFRAME XSTACK, 11, STACK
        PUBLIC TransmitApp_MaxDataLength
        PUBLIC TransmitApp_MessageMSGCB
        FUNCTION TransmitApp_MessageMSGCB,021203H
        ARGFRAME XSTACK, 12, STACK
        ARGFRAME IOVERLAY, 0, STATIC
        ARGFRAME DOVERLAY, 0, STATIC
        LOCFRAME ISTACK, 1, STACK
        LOCFRAME XSTACK, 12, STACK
        PUBLIC TransmitApp_Msg
        PUBLIC TransmitApp_NwkState
        PUBLIC TransmitApp_ProcessEvent
        FUNCTION TransmitApp_ProcessEvent,0a1203H
        ARGFRAME XSTACK, 0, STACK
        LOCFRAME XSTACK, 12, STACK
        PUBLIC TransmitApp_ProcessZDOMsgs
        FUNCTION TransmitApp_ProcessZDOMsgs,0a1203H
        ARGFRAME XSTACK, 12, STACK
        ARGFRAME IOVERLAY, 0, STATIC
        ARGFRAME DOVERLAY, 0, STATIC
        LOCFRAME XSTACK, 10, STACK
        PUBLIC TransmitApp_SendTheMessage
        FUNCTION TransmitApp_SendTheMessage,021203H
        ARGFRAME XSTACK, 12, STACK
        ARGFRAME IOVERLAY, 0, STATIC
        ARGFRAME DOVERLAY, 0, STATIC
        LOCFRAME XSTACK, 19, STACK
        PUBLIC TransmitApp_SetSendEvt
        FUNCTION TransmitApp_SetSendEvt,021203H
        ARGFRAME XSTACK, 20, STACK
        ARGFRAME IOVERLAY, 0, STATIC
        ARGFRAME DOVERLAY, 0, STATIC
        LOCFRAME ISTACK, 2, STACK
        PUBLIC TransmitApp_SimpleDesc
        PUBLIC TransmitApp_State
        PUBLIC TransmitApp_TaskID
        PUBLIC TransmitApp_epDesc
        PUBWEAK _A_P1
        PUBWEAK __Constant_0
        PUBWEAK __Constant_1869f
        PUBWEAK __Constant_186a0
        PUBWEAK __Constant_3e8
        PUBWEAK __Constant_a
        PUBLIC pktCounter
        PUBLIC uart_sent
        FUNCTION uart_sent,021203H
        ARGFRAME XSTACK, 20, STACK
        ARGFRAME IOVERLAY, 0, STATIC
        ARGFRAME DOVERLAY, 0, STATIC
        LOCFRAME XSTACK, 10, STACK
        
        CFI Names cfiNames0
        CFI StackFrame CFA_SP SP IDATA
        CFI StackFrame CFA_PSP16 PSP16 XDATA
        CFI StackFrame CFA_XSP16 XSP16 XDATA
        CFI StaticOverlayFrame CFA_IOVERLAY IOVERLAY
        CFI StaticOverlayFrame CFA_DOVERLAY DOVERLAY
        CFI Resource `PSW.CY`:1, `B.BR0`:1, `B.BR1`:1, `B.BR2`:1, `B.BR3`:1
        CFI Resource `B.BR4`:1, `B.BR5`:1, `B.BR6`:1, `B.BR7`:1, `VB.BR8`:1
        CFI Resource `VB.BR9`:1, `VB.BR10`:1, `VB.BR11`:1, `VB.BR12`:1
        CFI Resource `VB.BR13`:1, `VB.BR14`:1, `VB.BR15`:1, VB:8, B:8, A:8
        CFI Resource PSW:8, DPL0:8, DPH0:8, R0:8, R1:8, R2:8, R3:8, R4:8, R5:8
        CFI Resource R6:8, R7:8, V0:8, V1:8, V2:8, V3:8, V4:8, V5:8, V6:8, V7:8
        CFI Resource V8:8, V9:8, V10:8, V11:8, V12:8, V13:8, V14:8, V15:8, SP:8
        CFI Resource PSPH:8, PSPL:8, PSP16:16, XSPH:8, XSPL:8, XSP16:16
        CFI VirtualResource ?RET:24
        CFI Resource ?BRET_EXT:8
        CFI VirtualResource ?RET_HIGH:8, ?RET_LOW:8
        CFI ResourceParts PSP16 PSPH, PSPL
        CFI ResourceParts XSP16 XSPH, XSPL
        CFI ResourceParts ?RET ?BRET_EXT, ?RET_HIGH, ?RET_LOW
        CFI EndNames cfiNames0
        
        CFI Common cfiCommon0 Using cfiNames0
        CFI CodeAlign 1
        CFI DataAlign -1
        CFI ReturnAddress ?RET CODE
        CFI CFA_DOVERLAY Used
        CFI CFA_IOVERLAY Used
        CFI CFA_SP SP+-3
        CFI CFA_PSP16 PSP16+0
        CFI CFA_XSP16 XSP16+0
        CFI `PSW.CY` SameValue
        CFI `B.BR0` SameValue
        CFI `B.BR1` SameValue
        CFI `B.BR2` SameValue
        CFI `B.BR3` SameValue
        CFI `B.BR4` SameValue
        CFI `B.BR5` SameValue
        CFI `B.BR6` SameValue
        CFI `B.BR7` SameValue
        CFI `VB.BR8` SameValue
        CFI `VB.BR9` SameValue
        CFI `VB.BR10` SameValue
        CFI `VB.BR11` SameValue
        CFI `VB.BR12` SameValue
        CFI `VB.BR13` SameValue
        CFI `VB.BR14` SameValue
        CFI `VB.BR15` SameValue
        CFI VB SameValue
        CFI B Undefined
        CFI A Undefined
        CFI PSW SameValue
        CFI DPL0 SameValue
        CFI DPH0 SameValue
        CFI R0 Undefined
        CFI R1 Undefined
        CFI R2 Undefined
        CFI R3 Undefined
        CFI R4 Undefined
        CFI R5 Undefined
        CFI R6 SameValue
        CFI R7 SameValue
        CFI V0 SameValue
        CFI V1 SameValue
        CFI V2 SameValue
        CFI V3 SameValue
        CFI V4 SameValue
        CFI V5 SameValue
        CFI V6 SameValue
        CFI V7 SameValue
        CFI V8 SameValue
        CFI V9 SameValue
        CFI V10 SameValue
        CFI V11 SameValue
        CFI V12 SameValue
        CFI V13 SameValue
        CFI V14 SameValue
        CFI V15 SameValue
        CFI PSPH Undefined
        CFI PSPL Undefined
        CFI XSPH Undefined
        CFI XSPL Undefined
        CFI ?RET Concat
        CFI ?BRET_EXT Frame(CFA_SP, 3)
        CFI ?RET_HIGH Frame(CFA_SP, 2)
        CFI ?RET_LOW Frame(CFA_SP, 1)
        CFI EndCommon cfiCommon0
        
        
        CFI Common cfiCommon1 Using cfiNames0
        CFI CodeAlign 1
        CFI DataAlign -1
        CFI ReturnAddress ?RET CODE
        CFI CFA_DOVERLAY Used
        CFI CFA_IOVERLAY Used
        CFI CFA_SP SP+-2
        CFI CFA_PSP16 PSP16+0
        CFI CFA_XSP16 XSP16+0
        CFI `PSW.CY` SameValue
        CFI `B.BR0` SameValue
        CFI `B.BR1` SameValue
        CFI `B.BR2` SameValue
        CFI `B.BR3` SameValue
        CFI `B.BR4` SameValue
        CFI `B.BR5` SameValue
        CFI `B.BR6` SameValue
        CFI `B.BR7` SameValue
        CFI `VB.BR8` SameValue
        CFI `VB.BR9` SameValue
        CFI `VB.BR10` SameValue
        CFI `VB.BR11` SameValue
        CFI `VB.BR12` SameValue
        CFI `VB.BR13` SameValue
        CFI `VB.BR14` SameValue
        CFI `VB.BR15` SameValue
        CFI VB SameValue
        CFI B SameValue
        CFI A SameValue
        CFI PSW SameValue
        CFI DPL0 SameValue
        CFI DPH0 SameValue
        CFI R0 SameValue
        CFI R1 SameValue
        CFI R2 SameValue
        CFI R3 SameValue
        CFI R4 SameValue
        CFI R5 SameValue
        CFI R6 SameValue
        CFI R7 SameValue
        CFI V0 SameValue
        CFI V1 SameValue
        CFI V2 SameValue
        CFI V3 SameValue
        CFI V4 SameValue
        CFI V5 SameValue
        CFI V6 SameValue
        CFI V7 SameValue
        CFI V8 SameValue
        CFI V9 SameValue
        CFI V10 SameValue
        CFI V11 SameValue
        CFI V12 SameValue
        CFI V13 SameValue
        CFI V14 SameValue
        CFI V15 SameValue
        CFI PSPH Undefined
        CFI PSPL Undefined
        CFI XSPH Undefined
        CFI XSPL Undefined
        CFI ?RET Concat
        CFI ?BRET_EXT SameValue
        CFI ?RET_HIGH Frame(CFA_SP, 2)
        CFI ?RET_LOW Frame(CFA_SP, 1)
        CFI EndCommon cfiCommon1
        
afRegister          SYMBOL "afRegister"
RegisterForKeys     SYMBOL "RegisterForKeys"
HalLcdWriteString   SYMBOL "HalLcdWriteString"
afDataReqMTU        SYMBOL "afDataReqMTU"
ZDO_RegisterForZDOMsg SYMBOL "ZDO_RegisterForZDOMsg"
HalLedSet           SYMBOL "HalLedSet"
osal_msg_receive    SYMBOL "osal_msg_receive"
osal_msg_deallocate SYMBOL "osal_msg_deallocate"
ZDO_ParseEPListRsp  SYMBOL "ZDO_ParseEPListRsp"
osal_mem_free       SYMBOL "osal_mem_free"
NLME_GetShortAddr   SYMBOL "NLME_GetShortAddr"
ZDP_EndDeviceBindReq SYMBOL "ZDP_EndDeviceBindReq"
osal_mem_alloc      SYMBOL "osal_mem_alloc"
AF_DataRequest      SYMBOL "AF_DataRequest"
osal_start_timerEx  SYMBOL "osal_start_timerEx"
osal_set_event      SYMBOL "osal_set_event"
osal_strlen         SYMBOL "osal_strlen"
HalUARTWrite        SYMBOL "HalUARTWrite"
osal_GetSystemClock SYMBOL "osal_GetSystemClock"
osal_memset         SYMBOL "osal_memset"
??AF_DataRequest?relay SYMBOL "?relay", AF_DataRequest
??HalLcdWriteString?relay SYMBOL "?relay", HalLcdWriteString
??HalLedSet?relay   SYMBOL "?relay", HalLedSet
??HalUARTWrite?relay SYMBOL "?relay", HalUARTWrite
??NLME_GetShortAddr?relay SYMBOL "?relay", NLME_GetShortAddr
??RegisterForKeys?relay SYMBOL "?relay", RegisterForKeys
??ZDO_ParseEPListRsp?relay SYMBOL "?relay", ZDO_ParseEPListRsp
??ZDO_RegisterForZDOMsg?relay SYMBOL "?relay", ZDO_RegisterForZDOMsg
??ZDP_EndDeviceBindReq?relay SYMBOL "?relay", ZDP_EndDeviceBindReq
??afDataReqMTU?relay SYMBOL "?relay", afDataReqMTU
??afRegister?relay  SYMBOL "?relay", afRegister
??osal_GetSystemClock?relay SYMBOL "?relay", osal_GetSystemClock
??osal_mem_alloc?relay SYMBOL "?relay", osal_mem_alloc
??osal_mem_free?relay SYMBOL "?relay", osal_mem_free
??osal_memset?relay SYMBOL "?relay", osal_memset
??osal_msg_deallocate?relay SYMBOL "?relay", osal_msg_deallocate
??osal_msg_receive?relay SYMBOL "?relay", osal_msg_receive
??osal_set_event?relay SYMBOL "?relay", osal_set_event
??osal_start_timerEx?relay SYMBOL "?relay", osal_start_timerEx
??osal_strlen?relay SYMBOL "?relay", osal_strlen
TransmitApp_ChangeState SYMBOL "TransmitApp_ChangeState"
??TransmitApp_ChangeState?relay SYMBOL "?relay", TransmitApp_ChangeState
TransmitApp_DisplayResults SYMBOL "TransmitApp_DisplayResults"
??TransmitApp_DisplayResults?relay SYMBOL "?relay", TransmitApp_DisplayResults
TransmitApp_HandleKeys SYMBOL "TransmitApp_HandleKeys"
??TransmitApp_HandleKeys?relay SYMBOL "?relay", TransmitApp_HandleKeys
TransmitApp_Init    SYMBOL "TransmitApp_Init"
??TransmitApp_Init?relay SYMBOL "?relay", TransmitApp_Init
TransmitApp_MessageMSGCB SYMBOL "TransmitApp_MessageMSGCB"
??TransmitApp_MessageMSGCB?relay SYMBOL "?relay", TransmitApp_MessageMSGCB
TransmitApp_ProcessEvent SYMBOL "TransmitApp_ProcessEvent"
??TransmitApp_ProcessEvent?relay SYMBOL "?relay", TransmitApp_ProcessEvent
TransmitApp_ProcessZDOMsgs SYMBOL "TransmitApp_ProcessZDOMsgs"
??TransmitApp_ProcessZDOMsgs?relay SYMBOL "?relay", TransmitApp_ProcessZDOMsgs
TransmitApp_SendTheMessage SYMBOL "TransmitApp_SendTheMessage"
??TransmitApp_SendTheMessage?relay SYMBOL "?relay", TransmitApp_SendTheMessage
TransmitApp_SetSendEvt SYMBOL "TransmitApp_SetSendEvt"
??TransmitApp_SetSendEvt?relay SYMBOL "?relay", TransmitApp_SetSendEvt
uart_sent           SYMBOL "uart_sent"
??uart_sent?relay   SYMBOL "?relay", uart_sent

        EXTERN afRegister
        FUNCTION afRegister,0202H
        ARGFRAME ISTACK, 0, STACK
        ARGFRAME PSTACK, 0, STACK
        ARGFRAME XSTACK, 11, STACK
        ARGFRAME IOVERLAY, 0, STATIC
        ARGFRAME DOVERLAY, 0, STATIC
        EXTERN RegisterForKeys
        FUNCTION RegisterForKeys,0202H
        ARGFRAME ISTACK, 0, STACK
        ARGFRAME PSTACK, 0, STACK
        ARGFRAME XSTACK, 11, STACK
        ARGFRAME IOVERLAY, 0, STATIC
        ARGFRAME DOVERLAY, 0, STATIC
        EXTERN HalLcdWriteString
        FUNCTION HalLcdWriteString,0202H
        ARGFRAME ISTACK, 0, STACK
        ARGFRAME PSTACK, 0, STACK
        ARGFRAME XSTACK, 45, STACK
        ARGFRAME IOVERLAY, 0, STATIC
        ARGFRAME DOVERLAY, 0, STATIC
        EXTERN afDataReqMTU
        FUNCTION afDataReqMTU,0202H
        ARGFRAME ISTACK, 0, STACK
        ARGFRAME PSTACK, 0, STACK
        ARGFRAME XSTACK, 11, STACK
        ARGFRAME IOVERLAY, 0, STATIC
        ARGFRAME DOVERLAY, 0, STATIC
        EXTERN ZDO_RegisterForZDOMsg
        FUNCTION ZDO_RegisterForZDOMsg,0202H
        ARGFRAME ISTACK, 0, STACK
        ARGFRAME PSTACK, 0, STACK
        ARGFRAME XSTACK, 11, STACK
        ARGFRAME IOVERLAY, 0, STATIC
        ARGFRAME DOVERLAY, 0, STATIC
        EXTERN HalLedSet
        FUNCTION HalLedSet,0202H
        ARGFRAME ISTACK, 0, STACK
        ARGFRAME PSTACK, 0, STACK
        ARGFRAME XSTACK, 20, STACK
        ARGFRAME IOVERLAY, 0, STATIC
        ARGFRAME DOVERLAY, 0, STATIC
        EXTERN osal_msg_receive
        FUNCTION osal_msg_receive,0202H
        ARGFRAME ISTACK, 0, STACK
        ARGFRAME PSTACK, 0, STACK
        ARGFRAME XSTACK, 12, STACK
        ARGFRAME IOVERLAY, 0, STATIC
        ARGFRAME DOVERLAY, 0, STATIC
        EXTERN osal_msg_deallocate
        FUNCTION osal_msg_deallocate,0202H
        ARGFRAME ISTACK, 0, STACK
        ARGFRAME PSTACK, 0, STACK
        ARGFRAME XSTACK, 12, STACK
        ARGFRAME IOVERLAY, 0, STATIC
        ARGFRAME DOVERLAY, 0, STATIC
        EXTERN ZDO_ParseEPListRsp
        FUNCTION ZDO_ParseEPListRsp,0202H
        ARGFRAME ISTACK, 0, STACK
        ARGFRAME PSTACK, 0, STACK
        ARGFRAME XSTACK, 10, STACK
        ARGFRAME IOVERLAY, 0, STATIC
        ARGFRAME DOVERLAY, 0, STATIC
        EXTERN osal_mem_free
        FUNCTION osal_mem_free,0202H
        ARGFRAME ISTACK, 0, STACK
        ARGFRAME PSTACK, 0, STACK
        ARGFRAME XSTACK, 12, STACK
        ARGFRAME IOVERLAY, 0, STATIC
        ARGFRAME DOVERLAY, 0, STATIC
        EXTERN NLME_GetShortAddr
        FUNCTION NLME_GetShortAddr,0202H
        ARGFRAME ISTACK, 0, STACK
        ARGFRAME PSTACK, 0, STACK
        ARGFRAME XSTACK, 20, STACK
        ARGFRAME IOVERLAY, 0, STATIC
        ARGFRAME DOVERLAY, 0, STATIC
        EXTERN ZDP_EndDeviceBindReq
        FUNCTION ZDP_EndDeviceBindReq,0202H
        ARGFRAME ISTACK, 0, STACK
        ARGFRAME PSTACK, 0, STACK
        ARGFRAME XSTACK, 29, STACK
        ARGFRAME IOVERLAY, 0, STATIC
        ARGFRAME DOVERLAY, 0, STATIC
        EXTERN osal_mem_alloc
        FUNCTION osal_mem_alloc,0202H
        ARGFRAME ISTACK, 0, STACK
        ARGFRAME PSTACK, 0, STACK
        ARGFRAME XSTACK, 12, STACK
        ARGFRAME IOVERLAY, 0, STATIC
        ARGFRAME DOVERLAY, 0, STATIC
        EXTERN AF_DataRequest
        FUNCTION AF_DataRequest,0202H
        ARGFRAME ISTACK, 0, STACK
        ARGFRAME PSTACK, 0, STACK
        ARGFRAME XSTACK, 19, STACK
        ARGFRAME IOVERLAY, 0, STATIC
        ARGFRAME DOVERLAY, 0, STATIC
        EXTERN osal_start_timerEx
        FUNCTION osal_start_timerEx,0202H
        ARGFRAME ISTACK, 0, STACK
        ARGFRAME PSTACK, 0, STACK
        ARGFRAME XSTACK, 10, STACK
        ARGFRAME IOVERLAY, 0, STATIC
        ARGFRAME DOVERLAY, 0, STATIC
        EXTERN osal_set_event
        FUNCTION osal_set_event,0202H
        ARGFRAME ISTACK, 2, STACK
        ARGFRAME PSTACK, 0, STACK
        ARGFRAME XSTACK, 0, STACK
        ARGFRAME IOVERLAY, 0, STATIC
        ARGFRAME DOVERLAY, 0, STATIC
        EXTERN osal_strlen
        FUNCTION osal_strlen,0202H
        ARGFRAME ISTACK, 0, STACK
        ARGFRAME PSTACK, 0, STACK
        ARGFRAME XSTACK, 10, STACK
        ARGFRAME IOVERLAY, 0, STATIC
        ARGFRAME DOVERLAY, 0, STATIC
        EXTERN HalUARTWrite
        FUNCTION HalUARTWrite,0202H
        ARGFRAME ISTACK, 0, STACK
        ARGFRAME PSTACK, 0, STACK
        ARGFRAME XSTACK, 10, STACK
        ARGFRAME IOVERLAY, 0, STATIC
        ARGFRAME DOVERLAY, 0, STATIC
        EXTERN osal_GetSystemClock
        FUNCTION osal_GetSystemClock,0202H
        ARGFRAME ISTACK, 0, STACK
        ARGFRAME PSTACK, 0, STACK
        ARGFRAME XSTACK, 45, STACK
        ARGFRAME IOVERLAY, 0, STATIC
        ARGFRAME DOVERLAY, 0, STATIC
        EXTERN osal_memset
        FUNCTION osal_memset,0202H
        ARGFRAME ISTACK, 0, STACK
        ARGFRAME PSTACK, 0, STACK
        ARGFRAME XSTACK, 45, STACK
        ARGFRAME IOVERLAY, 0, STATIC
        ARGFRAME DOVERLAY, 0, STATIC
        EXTERN ??AF_DataRequest?relay
        FUNCTION ??AF_DataRequest?relay,00H
        EXTERN ??HalLcdWriteString?relay
        FUNCTION ??HalLcdWriteString?relay,00H
        EXTERN ??HalLedSet?relay
        FUNCTION ??HalLedSet?relay,00H
        EXTERN ??HalUARTWrite?relay
        FUNCTION ??HalUARTWrite?relay,00H
        EXTERN ??NLME_GetShortAddr?relay
        FUNCTION ??NLME_GetShortAddr?relay,00H
        EXTERN ??RegisterForKeys?relay
        FUNCTION ??RegisterForKeys?relay,00H
        EXTERN ??ZDO_ParseEPListRsp?relay
        FUNCTION ??ZDO_ParseEPListRsp?relay,00H
        EXTERN ??ZDO_RegisterForZDOMsg?relay
        FUNCTION ??ZDO_RegisterForZDOMsg?relay,00H
        EXTERN ??ZDP_EndDeviceBindReq?relay
        FUNCTION ??ZDP_EndDeviceBindReq?relay,00H
        EXTERN ??afDataReqMTU?relay
        FUNCTION ??afDataReqMTU?relay,00H
        EXTERN ??afRegister?relay
        FUNCTION ??afRegister?relay,00H
        EXTERN ??osal_GetSystemClock?relay
        FUNCTION ??osal_GetSystemClock?relay,00H
        EXTERN ??osal_mem_alloc?relay
        FUNCTION ??osal_mem_alloc?relay,00H
        EXTERN ??osal_mem_free?relay
        FUNCTION ??osal_mem_free?relay,00H
        EXTERN ??osal_memset?relay
        FUNCTION ??osal_memset?relay,00H
        EXTERN ??osal_msg_deallocate?relay
        FUNCTION ??osal_msg_deallocate?relay,00H
        EXTERN ??osal_msg_receive?relay
        FUNCTION ??osal_msg_receive?relay,00H
        EXTERN ??osal_set_event?relay
        FUNCTION ??osal_set_event?relay,00H
        EXTERN ??osal_start_timerEx?relay
        FUNCTION ??osal_start_timerEx?relay,00H
        EXTERN ??osal_strlen?relay
        FUNCTION ??osal_strlen?relay,00H

// D:\Texas Instruments\ZStack-CC2530-2.4.0-1.4.0\Projects\zstack\Utilities\Transmit\Source\TransmitApp.c
//    1 /**************************************************************************************************
//    2   Filename:       TransmitApp.c
//    3   Revised:        $Date: 2009-03-12 10:06:30 -0700 (Thu, 12 Mar 2009) $
//    4   Revision:       $Revision: 19395 $
//    5 
//    6   Description:    Transmit Application (no Profile).
//    7 
//    8 
//    9   Copyright 2004-2009 Texas Instruments Incorporated. All rights reserved.
//   10 
//   11   IMPORTANT: Your use of this Software is limited to those specific rights
//   12   granted under the terms of a software license agreement between the user
//   13   who downloaded the software, his/her employer (which must be your employer)
//   14   and Texas Instruments Incorporated (the "License").  You may not use this
//   15   Software unless you agree to abide by the terms of the License. The License
//   16   limits your use, and you acknowledge, that the Software may not be modified,
//   17   copied or distributed unless embedded on a Texas Instruments microcontroller
//   18   or used solely and exclusively in conjunction with a Texas Instruments radio
//   19   frequency transceiver, which is integrated into your product.  Other than for
//   20   the foregoing purpose, you may not use, reproduce, copy, prepare derivative
//   21   works of, modify, distribute, perform, display or sell this Software and/or
//   22   its documentation for any purpose.
//   23 
//   24   YOU FURTHER ACKNOWLEDGE AND AGREE THAT THE SOFTWARE AND DOCUMENTATION ARE
//   25   PROVIDED “AS IS?WITHOUT WARRANTY OF ANY KIND, EITHER EXPRESS OR IMPLIED,
//   26   INCLUDING WITHOUT LIMITATION, ANY WARRANTY OF MERCHANTABILITY, TITLE,
//   27   NON-INFRINGEMENT AND FITNESS FOR A PARTICULAR PURPOSE. IN NO EVENT SHALL
//   28   TEXAS INSTRUMENTS OR ITS LICENSORS BE LIABLE OR OBLIGATED UNDER CONTRACT,
//   29   NEGLIGENCE, STRICT LIABILITY, CONTRIBUTION, BREACH OF WARRANTY, OR OTHER
//   30   LEGAL EQUITABLE THEORY ANY DIRECT OR INDIRECT DAMAGES OR EXPENSES
//   31   INCLUDING BUT NOT LIMITED TO ANY INCIDENTAL, SPECIAL, INDIRECT, PUNITIVE
//   32   OR CONSEQUENTIAL DAMAGES, LOST PROFITS OR LOST DATA, COST OF PROCUREMENT
//   33   OF SUBSTITUTE GOODS, TECHNOLOGY, SERVICES, OR ANY CLAIMS BY THIRD PARTIES
//   34   (INCLUDING BUT NOT LIMITED TO ANY DEFENSE THEREOF), OR OTHER SIMILAR COSTS.
//   35 
//   36   Should you have any questions regarding your right to use this Software,
//   37   contact Texas Instruments Incorporated at www.TI.com.
//   38 **************************************************************************************************/
//   39 
//   40 /*********************************************************************
//   41   This application will send a data packet to another
//   42   tranmitApp device as fast as it can.  The receiving
//   43   transmitApp device will calculate the following transmit
//   44   rate statistics:
//   45     - Number bytes in the last second
//   46     - Number of seconds running
//   47     - Average number of bytes per second
//   48     - Number of packets received.
//   49 
//   50   The application will send one message and as soon as it
//   51   receives the confirmation for that message it will send
//   52   the next message.
//   53 
//   54   If you would like a delay between messages
//   55   define TRANSMITAPP_DELAY_SEND and set the delay amount
//   56   in TRANSMITAPP_SEND_DELAY.
//   57 
//   58   TransmitApp_MaxDataLength defines the message size
//   59 
//   60   Set TRANSMITAPP_TX_OPTIONS to AF_MSG_ACK_REQUEST to send
//   61   the message expecting an APS ACK, this will decrease your
//   62   throughput.  Set TRANSMITAPP_TX_OPTIONS to 0 for no
//   63   APS ACK.
//   64 
//   65   This applications doesn't have a profile, so it handles
//   66   everything directly - itself.
//   67 
//   68   Key control:
//   69     SW1:  Starts and stops the transmitting
//   70     SW2:  initiates end device binding
//   71     SW3:  Resets the display totals
//   72     SW4:  initiates a match description request
//   73 
//   74   Notes:
//   75 
//   76     This application was intended to be used to test the maximum
//   77     throughput between 2 devices in a network - between routers
//   78     coordinators.
//   79 
//   80     Although not recommended, it can be used between
//   81     an end device and a router (or coordinator), but you must
//   82     enable the delay feature (TRANSMITAPP_DELAY_SEND and
//   83     TRANSMITAPP_SEND_DELAY).  If you don't include the delay, the
//   84     end device can't receive messages because it will stop polling.
//   85     Also, the delay must be greater than RESPONSE_POLL_RATE (default 100 MSec).
//   86 *********************************************************************/
//   87 
//   88 /*********************************************************************
//   89  * INCLUDES
//   90  */
//   91 #include "OSAL.h"
//   92 #include "AF.h"
//   93 #include "ZDObject.h"
//   94 #include "ZDProfile.h"
//   95 
//   96 #include "TransmitApp.h"
//   97 #include "OnBoard.h"

        ASEGN SFR_AN:DATA:NOROOT,090H
// union <unnamed> volatile __sfr _A_P1
_A_P1:
        DS 1

        ASEGN SFR_AN:DATA:NOROOT,0fdH
// unsigned char volatile __sfr P0DIR
P0DIR:
        DS 1

        ASEGN SFR_AN:DATA:NOROOT,0feH
// unsigned char volatile __sfr P1DIR
P1DIR:
        DS 1
//   98 
//   99 #include "DebugTrace.h"
//  100 
//  101 /* HAL */
//  102 #include "hal_lcd.h"
//  103 #include "hal_led.h"
//  104 #include "hal_key.h"
//  105 #include "hal_uart.h"
//  106 
//  107 /*********************************************************************
//  108  * MACROS
//  109  */
//  110 
//  111 /*********************************************************************
//  112  * CONSTANTS
//  113  */
//  114 //#define TRANSMITAPP_RANDOM_LEN 
//  115 
//  116 #define TRANSMITAPP_STATE_WAITING 0
//  117 #define TRANSMITAPP_STATE_SENDING 1
//  118 
//  119 #if !defined ( RTR_NWK )
//  120   // Use these 2 lines to add a delay between each packet sent
//  121   //  - default for end devices
//  122   #define TRANSMITAPP_DELAY_SEND
//  123   #define TRANSMITAPP_SEND_DELAY    (RESPONSE_POLL_RATE * 2)  // in MSecs
//  124 #endif
//  125 
//  126 // Send with or without APS ACKs
//  127 //#define TRANSMITAPP_TX_OPTIONS    (AF_DISCV_ROUTE | AF_ACK_REQUEST)
//  128 #define TRANSMITAPP_TX_OPTIONS    AF_DISCV_ROUTE
//  129 
//  130 #define TRANSMITAPP_INITIAL_MSG_COUNT  2
//  131 
//  132 #define TRANSMITAPP_TRANSMIT_TIME   4  // 4 MS
//  133 #define TRANSMITAPP_DISPLAY_TIMER   (2 * 1000)
//  134 
//  135 #if defined ( TRANSMITAPP_FRAGMENTED )
//  136 #define TRANSMITAPP_MAX_DATA_LEN    225
//  137 #else
//  138 #define TRANSMITAPP_MAX_DATA_LEN    102
//  139 #endif
//  140 
//  141 /*********************************************************************
//  142  * TYPEDEFS
//  143  */
//  144 
//  145 /*********************************************************************
//  146  * GLOBAL VARIABLES
//  147  */
//  148 
//  149 // This is the buffer that is sent out as data.

        RSEG XDATA_Z:XDATA:NOROOT(0)
//  150 byte TransmitApp_Msg[ TRANSMITAPP_MAX_DATA_LEN ];
TransmitApp_Msg:
        DS 102
        REQUIRE __INIT_XDATA_Z
//  151 
//  152 // This is the Cluster ID List and should be filled with Application
//  153 // specific cluster IDs.

        RSEG XDATA_ROM_C:CONST:REORDER:NOROOT(0)
        DATA
//  154 const cId_t TransmitApp_ClusterList[TRANSMITAPP_MAX_CLUSTERS] =
TransmitApp_ClusterList:
        DW 1
//  155 {
//  156   TRANSMITAPP_CLUSTERID_TESTMSG  // MSG Cluster ID
//  157 };
//  158 

        RSEG XDATA_ROM_C:CONST:REORDER:NOROOT(0)
        DATA
//  159 const SimpleDescriptionFormat_t TransmitApp_SimpleDesc =
TransmitApp_SimpleDesc:
        DB 1
        DW 3845, 1
        DB 0, 1
        DW TransmitApp_ClusterList
        DB 1
        DW TransmitApp_ClusterList
//  160 {
//  161   TRANSMITAPP_ENDPOINT,              //  int    Endpoint;
//  162   TRANSMITAPP_PROFID,                //  uint16 AppProfId[2];
//  163   TRANSMITAPP_DEVICEID,              //  uint16 AppDeviceId[2];
//  164   TRANSMITAPP_DEVICE_VERSION,        //  int    AppDevVer:4;
//  165   TRANSMITAPP_FLAGS,                 //  int    AppFlags:4;
//  166   TRANSMITAPP_MAX_CLUSTERS,          //  byte   AppNumInClusters;
//  167   (cId_t *)TransmitApp_ClusterList,  //  byte   *pAppInClusterList;
//  168   TRANSMITAPP_MAX_CLUSTERS,          //  byte   AppNumInClusters;
//  169   (cId_t *)TransmitApp_ClusterList   //  byte   *pAppInClusterList;
//  170 };
//  171 
//  172 // This is the Endpoint/Interface description.  It is defined here, but
//  173 // filled-in in TransmitApp_Init().  Another way to go would be to fill
//  174 // in the structure here and make it a "const" (in code space).  The
//  175 // way it's defined in this sample app it is define in RAM.

        RSEG XDATA_Z:XDATA:NOROOT(0)
//  176 endPointDesc_t TransmitApp_epDesc;
TransmitApp_epDesc:
        DS 6
        REQUIRE __INIT_XDATA_Z
//  177 
//  178 /*********************************************************************
//  179  * EXTERNAL VARIABLES
//  180  */
//  181 
//  182 /*********************************************************************
//  183  * EXTERNAL FUNCTIONS
//  184  */
//  185 
//  186 /*********************************************************************
//  187  * LOCAL VARIABLES
//  188  */
//  189 
//  190 // Task ID for event processing - received when TransmitApp_Init() is called.

        RSEG XDATA_Z:XDATA:NOROOT(0)
//  191 byte TransmitApp_TaskID;
TransmitApp_TaskID:
        DS 1
        REQUIRE __INIT_XDATA_Z
//  192 

        RSEG XDATA_Z:XDATA:NOROOT(0)
//  193 devStates_t TransmitApp_NwkState;
TransmitApp_NwkState:
        DS 1
        REQUIRE __INIT_XDATA_Z
//  194 

        RSEG XDATA_Z:XDATA:NOROOT(0)
//  195 static byte TransmitApp_TransID;  // This is the unique message ID (counter)
TransmitApp_TransID:
        DS 1
        REQUIRE __INIT_XDATA_Z
//  196 

        RSEG XDATA_Z:XDATA:NOROOT(0)
//  197 afAddrType_t TransmitApp_DstAddr;
TransmitApp_DstAddr:
        DS 12
        REQUIRE __INIT_XDATA_Z
//  198 

        RSEG XDATA_Z:XDATA:NOROOT(0)
//  199 byte TransmitApp_State;
TransmitApp_State:
        DS 1
        REQUIRE __INIT_XDATA_Z
//  200 
//  201 // Shadow of the OSAL system clock used for calculating actual time expired.

        RSEG XDATA_Z:XDATA:NOROOT(0)
//  202 static uint32 clkShdw;
clkShdw:
        DS 4
        REQUIRE __INIT_XDATA_Z
//  203 // Running total count of test messages recv/sent since beginning current run.

        RSEG XDATA_Z:XDATA:NOROOT(0)
//  204 static uint32 rxTotal, txTotal;
rxTotal:
        DS 4
        REQUIRE __INIT_XDATA_Z

        RSEG XDATA_Z:XDATA:NOROOT(0)
txTotal:
        DS 4
        REQUIRE __INIT_XDATA_Z
//  205 // Running count of test messages recv/sent since last display / update - 1 Hz.

        RSEG XDATA_Z:XDATA:NOROOT(0)
//  206 static uint32 rxAccum, txAccum;
rxAccum:
        DS 4
        REQUIRE __INIT_XDATA_Z

        RSEG XDATA_Z:XDATA:NOROOT(0)
txAccum:
        DS 4
        REQUIRE __INIT_XDATA_Z
//  207 
//  208 static byte timerOn;
//  209 

        RSEG XDATA_Z:XDATA:NOROOT(0)
//  210 static byte timesToSend;
timesToSend:
        DS 1
        REQUIRE __INIT_XDATA_Z
//  211 

        RSEG XDATA_Z:XDATA:NOROOT(0)
//  212 uint16 pktCounter;
pktCounter:
        DS 2
        REQUIRE __INIT_XDATA_Z
//  213 
//  214 // Max Data Request Length

        RSEG XDATA_Z:XDATA:NOROOT(0)
//  215 uint16 TransmitApp_MaxDataLength;
TransmitApp_MaxDataLength:
        DS 2
        REQUIRE __INIT_XDATA_Z
//  216 
//  217 //---pan

        RSEG XDATA_Z:XDATA:NOROOT(0)
//  218   static uint8 light = 0;
light:
        DS 1
        REQUIRE __INIT_XDATA_Z

        RSEG XDATA_Z:XDATA:NOROOT(0)
//  219   static uint8 alarm = 0;
alarm:
        DS 1
        REQUIRE __INIT_XDATA_Z
//  220   
//  221 /*********************************************************************
//  222  * LOCAL FUNCTIONS
//  223  */
//  224 void TransmitApp_ProcessZDOMsgs( zdoIncomingMsg_t *inMsg );
//  225 void TransmitApp_HandleKeys( byte shift, byte keys );
//  226 void TransmitApp_MessageMSGCB( afIncomingMSGPacket_t *pckt );
//  227 void TransmitApp_SendTheMessage( void );
//  228 void TransmitApp_ChangeState( void );
//  229 
//  230 /*********************************************************************
//  231  * NETWORK LAYER CALLBACKS
//  232  */
//  233 
//  234 /*********************************************************************
//  235  * PUBLIC FUNCTIONS
//  236  */
//  237 void TransmitApp_DisplayResults( void );
//  238 
//  239 /*********************************************************************
//  240  * @fn      TransmitApp_Init
//  241  *
//  242  * @brief   Initialization function for the Generic App Task.
//  243  *          This is called during initialization and should contain
//  244  *          any application specific initialization (ie. hardware
//  245  *          initialization/setup, table initialization, power up
//  246  *          notificaiton ... ).
//  247  *
//  248  * @param   task_id - the ID assigned by OSAL.  This ID should be
//  249  *                    used to send messages and set timers.
//  250  *
//  251  * @return  none
//  252  */

        RSEG BANKED_CODE:CODE:NOROOT(0)
//  253 void TransmitApp_Init( byte task_id )
TransmitApp_Init:
        CFI Block cfiBlock0 Using cfiCommon0
        CFI Function TransmitApp_Init
//  254 {
        FUNCALL TransmitApp_Init, afRegister
        LOCFRAME ISTACK, 0, STACK
        LOCFRAME PSTACK, 0, STACK
        LOCFRAME XSTACK, 11, STACK
        LOCFRAME IOVERLAY, 0, STATIC
        LOCFRAME DOVERLAY, 0, STATIC
        ARGFRAME ISTACK, 0, STACK
        ARGFRAME PSTACK, 0, STACK
        ARGFRAME XSTACK, 11, STACK
        ARGFRAME IOVERLAY, 0, STATIC
        ARGFRAME DOVERLAY, 0, STATIC
        FUNCALL TransmitApp_Init, RegisterForKeys
        LOCFRAME ISTACK, 0, STACK
        LOCFRAME PSTACK, 0, STACK
        LOCFRAME XSTACK, 11, STACK
        LOCFRAME IOVERLAY, 0, STATIC
        LOCFRAME DOVERLAY, 0, STATIC
        ARGFRAME ISTACK, 0, STACK
        ARGFRAME PSTACK, 0, STACK
        ARGFRAME XSTACK, 11, STACK
        ARGFRAME IOVERLAY, 0, STATIC
        ARGFRAME DOVERLAY, 0, STATIC
        FUNCALL TransmitApp_Init, HalLcdWriteString
        LOCFRAME ISTACK, 0, STACK
        LOCFRAME PSTACK, 0, STACK
        LOCFRAME XSTACK, 11, STACK
        LOCFRAME IOVERLAY, 0, STATIC
        LOCFRAME DOVERLAY, 0, STATIC
        ARGFRAME ISTACK, 0, STACK
        ARGFRAME PSTACK, 0, STACK
        ARGFRAME XSTACK, 11, STACK
        ARGFRAME IOVERLAY, 0, STATIC
        ARGFRAME DOVERLAY, 0, STATIC
        FUNCALL TransmitApp_Init, afDataReqMTU
        LOCFRAME ISTACK, 0, STACK
        LOCFRAME PSTACK, 0, STACK
        LOCFRAME XSTACK, 11, STACK
        LOCFRAME IOVERLAY, 0, STATIC
        LOCFRAME DOVERLAY, 0, STATIC
        ARGFRAME ISTACK, 0, STACK
        ARGFRAME PSTACK, 0, STACK
        ARGFRAME XSTACK, 11, STACK
        ARGFRAME IOVERLAY, 0, STATIC
        ARGFRAME DOVERLAY, 0, STATIC
        FUNCALL TransmitApp_Init, ZDO_RegisterForZDOMsg
        LOCFRAME ISTACK, 0, STACK
        LOCFRAME PSTACK, 0, STACK
        LOCFRAME XSTACK, 11, STACK
        LOCFRAME IOVERLAY, 0, STATIC
        LOCFRAME DOVERLAY, 0, STATIC
        ARGFRAME ISTACK, 0, STACK
        ARGFRAME PSTACK, 0, STACK
        ARGFRAME XSTACK, 11, STACK
        ARGFRAME IOVERLAY, 0, STATIC
        ARGFRAME DOVERLAY, 0, STATIC
        FUNCALL TransmitApp_Init, ZDO_RegisterForZDOMsg
        LOCFRAME ISTACK, 0, STACK
        LOCFRAME PSTACK, 0, STACK
        LOCFRAME XSTACK, 11, STACK
        LOCFRAME IOVERLAY, 0, STATIC
        LOCFRAME DOVERLAY, 0, STATIC
        ARGFRAME ISTACK, 0, STACK
        ARGFRAME PSTACK, 0, STACK
        ARGFRAME XSTACK, 11, STACK
        ARGFRAME IOVERLAY, 0, STATIC
        ARGFRAME DOVERLAY, 0, STATIC
        FUNCALL TransmitApp_Init, HalLedSet
        LOCFRAME ISTACK, 0, STACK
        LOCFRAME PSTACK, 0, STACK
        LOCFRAME XSTACK, 11, STACK
        LOCFRAME IOVERLAY, 0, STATIC
        LOCFRAME DOVERLAY, 0, STATIC
        ARGFRAME ISTACK, 0, STACK
        ARGFRAME PSTACK, 0, STACK
        ARGFRAME XSTACK, 11, STACK
        ARGFRAME IOVERLAY, 0, STATIC
        ARGFRAME DOVERLAY, 0, STATIC
        FUNCALL TransmitApp_Init, HalLedSet
        LOCFRAME ISTACK, 0, STACK
        LOCFRAME PSTACK, 0, STACK
        LOCFRAME XSTACK, 11, STACK
        LOCFRAME IOVERLAY, 0, STATIC
        LOCFRAME DOVERLAY, 0, STATIC
        ARGFRAME ISTACK, 0, STACK
        ARGFRAME PSTACK, 0, STACK
        ARGFRAME XSTACK, 11, STACK
        ARGFRAME IOVERLAY, 0, STATIC
        ARGFRAME DOVERLAY, 0, STATIC
        FUNCALL TransmitApp_Init, HalLedSet
        LOCFRAME ISTACK, 0, STACK
        LOCFRAME PSTACK, 0, STACK
        LOCFRAME XSTACK, 11, STACK
        LOCFRAME IOVERLAY, 0, STATIC
        LOCFRAME DOVERLAY, 0, STATIC
        ARGFRAME ISTACK, 0, STACK
        ARGFRAME PSTACK, 0, STACK
        ARGFRAME XSTACK, 11, STACK
        ARGFRAME IOVERLAY, 0, STATIC
        ARGFRAME DOVERLAY, 0, STATIC
        FUNCALL TransmitApp_Init, HalLedSet
        LOCFRAME ISTACK, 0, STACK
        LOCFRAME PSTACK, 0, STACK
        LOCFRAME XSTACK, 11, STACK
        LOCFRAME IOVERLAY, 0, STATIC
        LOCFRAME DOVERLAY, 0, STATIC
        ARGFRAME ISTACK, 0, STACK
        ARGFRAME PSTACK, 0, STACK
        ARGFRAME XSTACK, 11, STACK
        ARGFRAME IOVERLAY, 0, STATIC
        ARGFRAME DOVERLAY, 0, STATIC
        FUNCALL TransmitApp_Init, uart_sent
        LOCFRAME ISTACK, 0, STACK
        LOCFRAME PSTACK, 0, STACK
        LOCFRAME XSTACK, 11, STACK
        LOCFRAME IOVERLAY, 0, STATIC
        LOCFRAME DOVERLAY, 0, STATIC
        ARGFRAME ISTACK, 0, STACK
        ARGFRAME PSTACK, 0, STACK
        ARGFRAME XSTACK, 11, STACK
        ARGFRAME IOVERLAY, 0, STATIC
        ARGFRAME DOVERLAY, 0, STATIC
        MOV     A,#-0x9
        LCALL   ?BANKED_ENTER_XDATA
        CFI DPH0 load(1, XDATA, add(CFA_XSP16, literal(-1)))
        CFI DPL0 load(1, XDATA, add(CFA_XSP16, literal(-2)))
        CFI ?BRET_EXT load(1, XDATA, add(CFA_XSP16, literal(-3)))
        CFI ?RET_HIGH load(1, XDATA, add(CFA_XSP16, literal(-4)))
        CFI ?RET_LOW load(1, XDATA, add(CFA_XSP16, literal(-5)))
        CFI R7 load(1, XDATA, add(CFA_XSP16, literal(-6)))
        CFI V0 load(1, XDATA, add(CFA_XSP16, literal(-7)))
        CFI VB load(1, XDATA, add(CFA_XSP16, literal(-8)))
        CFI R6 load(1, XDATA, add(CFA_XSP16, literal(-9)))
        CFI CFA_SP SP+0
        CFI CFA_XSP16 add(XSP16, 9)
        ; Saved register size: 9
        ; Auto size: 2
        MOV     A,#-0x2
        LCALL   ?ALLOC_XSTACK8
        CFI CFA_XSP16 add(XSP16, 11)
        MOV     A,R1
//  255 #if !defined ( TRANSMITAPP_FRAGMENTED )
//  256   afDataReqMTU_t mtu;
//  257 #endif
//  258   uint16 i;
//  259 
//  260   TransmitApp_TaskID = task_id;
        MOV     DPTR,#TransmitApp_TaskID
        MOVX    @DPTR,A
//  261   TransmitApp_NwkState = DEV_INIT;
        MOV     A,#0x1
        MOV     DPTR,#TransmitApp_NwkState
        MOVX    @DPTR,A
//  262   TransmitApp_TransID = 0;
        CLR     A
        MOV     DPTR,#TransmitApp_TransID
        MOVX    @DPTR,A
//  263 
//  264   pktCounter = 0;
        MOV     DPTR,#pktCounter
        MOVX    @DPTR,A
        INC     DPTR
        MOVX    @DPTR,A
//  265 
//  266   TransmitApp_State = TRANSMITAPP_STATE_WAITING;
        MOV     DPTR,#TransmitApp_State
        MOVX    @DPTR,A
//  267 
//  268   // Device hardware initialization can be added here or in main() (Zmain.c).
//  269   // If the hardware is application specific - add it here.
//  270   // If the hardware is other parts of the device add it in main().
//  271 
//  272   TransmitApp_DstAddr.addrMode = (afAddrMode_t)AddrNotPresent;
        MOV     DPTR,#(TransmitApp_DstAddr + 8)
        MOVX    @DPTR,A
//  273   TransmitApp_DstAddr.endPoint = 0;
        MOV     DPTR,#(TransmitApp_DstAddr + 9)
        MOVX    @DPTR,A
//  274   TransmitApp_DstAddr.addr.shortAddr = 0;
        MOV     DPTR,#TransmitApp_DstAddr
        MOVX    @DPTR,A
        INC     DPTR
        MOVX    @DPTR,A
//  275 
//  276   // Fill out the endpoint description.
//  277   TransmitApp_epDesc.endPoint = TRANSMITAPP_ENDPOINT;
        MOV     A,#0x1
        MOV     DPTR,#TransmitApp_epDesc
        MOVX    @DPTR,A
//  278   TransmitApp_epDesc.task_id = &TransmitApp_TaskID;
        MOV     DPTR,#(TransmitApp_epDesc + 1)
        MOV     A,#(TransmitApp_TaskID & 0xff)
        MOVX    @DPTR,A
        INC     DPTR
        MOV     A,#((TransmitApp_TaskID >> 8) & 0xff)
        MOVX    @DPTR,A
//  279   TransmitApp_epDesc.simpleDesc
//  280             = (SimpleDescriptionFormat_t *)&TransmitApp_SimpleDesc;
        MOV     DPTR,#(TransmitApp_epDesc + 3)
        MOV     A,#(TransmitApp_SimpleDesc & 0xff)
        MOVX    @DPTR,A
        INC     DPTR
        MOV     A,#((TransmitApp_SimpleDesc >> 8) & 0xff)
        MOVX    @DPTR,A
//  281   TransmitApp_epDesc.latencyReq = noLatencyReqs;
        CLR     A
        MOV     DPTR,#(TransmitApp_epDesc + 5)
        MOVX    @DPTR,A
//  282 
//  283   // Register the endpoint/interface description with the AF
//  284   afRegister( &TransmitApp_epDesc );
        ; Setup parameters for call to function afRegister
        MOV     R2,#(TransmitApp_epDesc & 0xff)
        MOV     R3,#((TransmitApp_epDesc >> 8) & 0xff)
        LCALL   ??afRegister?relay
//  285 
//  286   // Register for all key events - This app will handle all key events
//  287   RegisterForKeys( TransmitApp_TaskID );
        ; Setup parameters for call to function RegisterForKeys
        MOV     DPTR,#TransmitApp_TaskID
        MOVX    A,@DPTR
        MOV     R1,A
        LCALL   ??RegisterForKeys?relay
//  288 
//  289   // Update the display
//  290 #if defined ( LCD_SUPPORTED )
//  291   HalLcdWriteString( "TransmitApp", HAL_LCD_LINE_2 );
        ; Setup parameters for call to function HalLcdWriteString
        MOV     R1,#0x2
        MOV     R2,#(`?<Constant "TransmitApp">` & 0xff)
        MOV     R3,#((`?<Constant "TransmitApp">` >> 8) & 0xff)
        LCALL   ??HalLcdWriteString?relay
//  292 #endif
//  293 
//  294   // Set the data length
//  295 #if defined ( TRANSMITAPP_FRAGMENTED )
//  296   TransmitApp_MaxDataLength = TRANSMITAPP_MAX_DATA_LEN;
//  297 #else
//  298   mtu.kvp        = FALSE;
        CLR     A
        MOV     DPL,?XSP + 0
        MOV     DPH,?XSP + 1
        MOVX    @DPTR,A
//  299   mtu.aps.secure = FALSE;
        MOV     A,#0x1
        LCALL   ?XSTACK_DISP0_8
        CLR     A
        MOVX    @DPTR,A
//  300   TransmitApp_MaxDataLength = afDataReqMTU( &mtu );
        ; Setup parameters for call to function afDataReqMTU
        MOV     DPL,?XSP + 0
        MOV     DPH,?XSP + 1
        MOV     R2,DPL
        MOV     R3,DPH
        LCALL   ??afDataReqMTU?relay
        MOV     A,R1
        MOV     DPTR,#TransmitApp_MaxDataLength
        MOVX    @DPTR,A
        INC     DPTR
        CLR     A
        MOVX    @DPTR,A
//  301 #endif
//  302 
//  303   // Generate the data
//  304   for (i=0; i<TransmitApp_MaxDataLength; i++)
        MOV     R0,A
        SJMP    ??TransmitApp_Init_0
//  305   {
//  306     TransmitApp_Msg[i] = (uint8) i;
??TransmitApp_Init_1:
        MOV     A,R0
        ADD     A,#(TransmitApp_Msg & 0xff)
        MOV     DPL,A
        MOV     A,R1
        ADDC    A,#((TransmitApp_Msg >> 8) & 0xff)
        MOV     DPH,A
        MOV     A,R0
        MOVX    @DPTR,A
//  307   }
        ADD     A,#0x1
        INC     R0
        MOV     A,R1
        ADDC    A,#0x0
??TransmitApp_Init_0:
        MOV     R1,A
        MOV     DPTR,#TransmitApp_MaxDataLength
        MOVX    A,@DPTR
        MOV     R2,A
        INC     DPTR
        MOVX    A,@DPTR
        MOV     R3,A
        CLR     C
        MOV     A,R0
        SUBB    A,R2
        MOV     A,R1
        SUBB    A,R3
        JC      ??TransmitApp_Init_1
//  308 
//  309   ZDO_RegisterForZDOMsg( TransmitApp_TaskID, End_Device_Bind_rsp );
        ; Setup parameters for call to function ZDO_RegisterForZDOMsg
        MOV     R2,#0x20
        MOV     R3,#-0x80
        MOV     DPTR,#TransmitApp_TaskID
        MOVX    A,@DPTR
        MOV     R1,A
        LCALL   ??ZDO_RegisterForZDOMsg?relay
//  310   ZDO_RegisterForZDOMsg( TransmitApp_TaskID, Match_Desc_rsp );
        ; Setup parameters for call to function ZDO_RegisterForZDOMsg
        MOV     R2,#0x6
        MOV     R3,#-0x80
        MOV     DPTR,#TransmitApp_TaskID
        MOVX    A,@DPTR
        MOV     R1,A
        LCALL   ??ZDO_RegisterForZDOMsg?relay
//  311   
//  312     //---pan
//  313     HalLedSet ( HAL_LED_1, HAL_LED_MODE_BLINK );
        ; Setup parameters for call to function HalLedSet
        MOV     R2,#0x2
        MOV     R1,#0x1
        LCALL   ??HalLedSet?relay
//  314     HalLedSet ( HAL_LED_2, HAL_LED_MODE_OFF );
        ; Setup parameters for call to function HalLedSet
        MOV     R2,#0x0
        MOV     R1,#0x2
        LCALL   ??HalLedSet?relay
//  315     HalLedSet ( HAL_LED_3, HAL_LED_MODE_OFF );
        ; Setup parameters for call to function HalLedSet
        MOV     R2,#0x0
        MOV     R1,#0x4
        LCALL   ??HalLedSet?relay
//  316     HalLedSet ( HAL_LED_4, HAL_LED_MODE_OFF );
        ; Setup parameters for call to function HalLedSet
        MOV     R2,#0x0
        MOV     R1,#0x8
        LCALL   ??HalLedSet?relay
//  317     
//  318     uart_sent( "Home Automation --Start!!\n",0);
        ; Setup parameters for call to function uart_sent
        MOV     R1,#0x0
        MOV     R2,#(`?<Constant "Home Automation --Sta...">` & 0xff)
        MOV     R3,#((`?<Constant "Home Automation --Sta...">` >> 8) & 0xff)
        LCALL   ??uart_sent?relay
//  319 }
        MOV     A,#0x2
        LCALL   ?DEALLOC_XSTACK8
        CFI CFA_XSP16 add(XSP16, 9)
        MOV     R7,#0x1
        LJMP    ?BANKED_LEAVE_XDATA
        CFI EndBlock cfiBlock0
//  320 
//  321 /*********************************************************************
//  322  * @fn      TransmitApp_ProcessEvent
//  323  *
//  324  * @brief   Generic Application Task event processor.  This function
//  325  *          is called to process all events for the task.  Events
//  326  *          include timers, messages and any other user defined events.
//  327  *
//  328  * @param   task_id  - The OSAL assigned task ID.
//  329  * @param   events - events to process.  This is a bit map and can
//  330  *                   contain more than one event.
//  331  *
//  332  * @return  none
//  333  */

        RSEG BANKED_CODE:CODE:NOROOT(0)
//  334 UINT16 TransmitApp_ProcessEvent( byte task_id, UINT16 events )
TransmitApp_ProcessEvent:
        CFI Block cfiBlock1 Using cfiCommon0
        CFI Function TransmitApp_ProcessEvent
//  335 {
        FUNCALL TransmitApp_ProcessEvent, osal_msg_receive
        LOCFRAME ISTACK, 0, STACK
        LOCFRAME PSTACK, 0, STACK
        LOCFRAME XSTACK, 12, STACK
        LOCFRAME IOVERLAY, 0, STATIC
        LOCFRAME DOVERLAY, 0, STATIC
        ARGFRAME ISTACK, 0, STACK
        ARGFRAME PSTACK, 0, STACK
        ARGFRAME XSTACK, 12, STACK
        ARGFRAME IOVERLAY, 0, STATIC
        ARGFRAME DOVERLAY, 0, STATIC
        FUNCALL TransmitApp_ProcessEvent, TransmitApp_ProcessZDOMsgs
        LOCFRAME ISTACK, 0, STACK
        LOCFRAME PSTACK, 0, STACK
        LOCFRAME XSTACK, 12, STACK
        LOCFRAME IOVERLAY, 0, STATIC
        LOCFRAME DOVERLAY, 0, STATIC
        ARGFRAME ISTACK, 0, STACK
        ARGFRAME PSTACK, 0, STACK
        ARGFRAME XSTACK, 12, STACK
        ARGFRAME IOVERLAY, 0, STATIC
        ARGFRAME DOVERLAY, 0, STATIC
        FUNCALL TransmitApp_ProcessEvent, osal_msg_deallocate
        LOCFRAME ISTACK, 0, STACK
        LOCFRAME PSTACK, 0, STACK
        LOCFRAME XSTACK, 12, STACK
        LOCFRAME IOVERLAY, 0, STATIC
        LOCFRAME DOVERLAY, 0, STATIC
        ARGFRAME ISTACK, 0, STACK
        ARGFRAME PSTACK, 0, STACK
        ARGFRAME XSTACK, 12, STACK
        ARGFRAME IOVERLAY, 0, STATIC
        ARGFRAME DOVERLAY, 0, STATIC
        FUNCALL TransmitApp_ProcessEvent, osal_msg_receive
        LOCFRAME ISTACK, 0, STACK
        LOCFRAME PSTACK, 0, STACK
        LOCFRAME XSTACK, 12, STACK
        LOCFRAME IOVERLAY, 0, STATIC
        LOCFRAME DOVERLAY, 0, STATIC
        ARGFRAME ISTACK, 0, STACK
        ARGFRAME PSTACK, 0, STACK
        ARGFRAME XSTACK, 12, STACK
        ARGFRAME IOVERLAY, 0, STATIC
        ARGFRAME DOVERLAY, 0, STATIC
        FUNCALL TransmitApp_ProcessEvent, TransmitApp_HandleKeys
        LOCFRAME ISTACK, 0, STACK
        LOCFRAME PSTACK, 0, STACK
        LOCFRAME XSTACK, 12, STACK
        LOCFRAME IOVERLAY, 0, STATIC
        LOCFRAME DOVERLAY, 0, STATIC
        ARGFRAME ISTACK, 0, STACK
        ARGFRAME PSTACK, 0, STACK
        ARGFRAME XSTACK, 12, STACK
        ARGFRAME IOVERLAY, 0, STATIC
        ARGFRAME DOVERLAY, 0, STATIC
        FUNCALL TransmitApp_ProcessEvent, HalLedSet
        LOCFRAME ISTACK, 0, STACK
        LOCFRAME PSTACK, 0, STACK
        LOCFRAME XSTACK, 12, STACK
        LOCFRAME IOVERLAY, 0, STATIC
        LOCFRAME DOVERLAY, 0, STATIC
        ARGFRAME ISTACK, 0, STACK
        ARGFRAME PSTACK, 0, STACK
        ARGFRAME XSTACK, 12, STACK
        ARGFRAME IOVERLAY, 0, STATIC
        ARGFRAME DOVERLAY, 0, STATIC
        FUNCALL TransmitApp_ProcessEvent, TransmitApp_MessageMSGCB
        LOCFRAME ISTACK, 0, STACK
        LOCFRAME PSTACK, 0, STACK
        LOCFRAME XSTACK, 12, STACK
        LOCFRAME IOVERLAY, 0, STATIC
        LOCFRAME DOVERLAY, 0, STATIC
        ARGFRAME ISTACK, 0, STACK
        ARGFRAME PSTACK, 0, STACK
        ARGFRAME XSTACK, 12, STACK
        ARGFRAME IOVERLAY, 0, STATIC
        ARGFRAME DOVERLAY, 0, STATIC
        FUNCALL TransmitApp_ProcessEvent, TransmitApp_SendTheMessage
        LOCFRAME ISTACK, 0, STACK
        LOCFRAME PSTACK, 0, STACK
        LOCFRAME XSTACK, 12, STACK
        LOCFRAME IOVERLAY, 0, STATIC
        LOCFRAME DOVERLAY, 0, STATIC
        ARGFRAME ISTACK, 0, STACK
        ARGFRAME PSTACK, 0, STACK
        ARGFRAME XSTACK, 12, STACK
        ARGFRAME IOVERLAY, 0, STATIC
        ARGFRAME DOVERLAY, 0, STATIC
        FUNCALL TransmitApp_ProcessEvent, TransmitApp_SetSendEvt
        LOCFRAME ISTACK, 0, STACK
        LOCFRAME PSTACK, 0, STACK
        LOCFRAME XSTACK, 12, STACK
        LOCFRAME IOVERLAY, 0, STATIC
        LOCFRAME DOVERLAY, 0, STATIC
        ARGFRAME ISTACK, 0, STACK
        ARGFRAME PSTACK, 0, STACK
        ARGFRAME XSTACK, 12, STACK
        ARGFRAME IOVERLAY, 0, STATIC
        ARGFRAME DOVERLAY, 0, STATIC
        MOV     A,#-0xc
        LCALL   ?BANKED_ENTER_XDATA
        CFI DPH0 load(1, XDATA, add(CFA_XSP16, literal(-1)))
        CFI DPL0 load(1, XDATA, add(CFA_XSP16, literal(-2)))
        CFI ?BRET_EXT load(1, XDATA, add(CFA_XSP16, literal(-3)))
        CFI ?RET_HIGH load(1, XDATA, add(CFA_XSP16, literal(-4)))
        CFI ?RET_LOW load(1, XDATA, add(CFA_XSP16, literal(-5)))
        CFI R7 load(1, XDATA, add(CFA_XSP16, literal(-6)))
        CFI V3 load(1, XDATA, add(CFA_XSP16, literal(-7)))
        CFI V2 load(1, XDATA, add(CFA_XSP16, literal(-8)))
        CFI V1 load(1, XDATA, add(CFA_XSP16, literal(-9)))
        CFI V0 load(1, XDATA, add(CFA_XSP16, literal(-10)))
        CFI VB load(1, XDATA, add(CFA_XSP16, literal(-11)))
        CFI R6 load(1, XDATA, add(CFA_XSP16, literal(-12)))
        CFI CFA_SP SP+0
        CFI CFA_XSP16 add(XSP16, 12)
        ; Saved register size: 12
        ; Auto size: 0
        MOV     A,R2
        MOV     R6,A
        MOV     A,R3
        MOV     R7,A
//  336   afIncomingMSGPacket_t *MSGpkt;
//  337   afDataConfirm_t *afDataConfirm;
//  338   (void)task_id;  // Intentionally unreferenced parameter
//  339 
//  340   // Data Confirmation message fields
//  341   ZStatus_t sentStatus;
//  342   byte sentEP;
//  343 
//  344   if ( events & SYS_EVENT_MSG )
        MOV     A,#-0x80
        ANL     A,R7
        MOV     R1,A
        CLR     A
        JNZ     ??TransmitApp_ProcessEvent_0
        MOV     A,R1
??TransmitApp_ProcessEvent_0:
        JNZ     $+5
        LJMP    ??TransmitApp_ProcessEvent_1 & 0xFFFF
//  345   {
//  346     MSGpkt = (afIncomingMSGPacket_t *)osal_msg_receive( TransmitApp_TaskID );
        ; Setup parameters for call to function osal_msg_receive
        SJMP    ??TransmitApp_ProcessEvent_2
//  347     while ( MSGpkt )
//  348     {
//  349       switch ( MSGpkt->hdr.event )
//  350       {
//  351         case ZDO_CB_MSG:
//  352           TransmitApp_ProcessZDOMsgs( (zdoIncomingMsg_t *)MSGpkt );
??TransmitApp_ProcessEvent_3:
        ; Setup parameters for call to function TransmitApp_ProcessZDOMsgs
        MOV     R2,?V0 + 0
        MOV     R3,?V0 + 1
        LCALL   ??TransmitApp_ProcessZDOMsgs?relay
//  353           break;
//  354 
//  355         case KEY_CHANGE:
//  356           TransmitApp_HandleKeys( ((keyChange_t *)MSGpkt)->state, ((keyChange_t *)MSGpkt)->keys );
//  357           break;
//  358 
//  359         case AF_DATA_CONFIRM_CMD:
//  360           // This message is received as a confirmation of a data packet sent.
//  361           // The status is of ZStatus_t type [defined in ZComDef.h]
//  362           // The message fields are defined in AF.h
//  363           afDataConfirm = (afDataConfirm_t *)MSGpkt;
//  364           sentEP = afDataConfirm->endpoint;
//  365           sentStatus = afDataConfirm->hdr.status;
//  366 
//  367           if ( (ZSuccess == sentStatus) &&
//  368                (TransmitApp_epDesc.endPoint == sentEP) )
//  369           {
//  370             HalLedSet ( HAL_LED_1, HAL_LED_MODE_BLINK );
//  371 //#if !defined ( TRANSMITAPP_RANDOM_LEN )
//  372 //            txAccum += TransmitApp_MaxDataLength;
//  373 //#endif
//  374 //            if ( !timerOn )
//  375 //            {
//  376 //              osal_start_timerEx( TransmitApp_TaskID,TRANSMITAPP_RCVTIMER_EVT,
//  377 //                                                     TRANSMITAPP_DISPLAY_TIMER);
//  378 //              clkShdw = osal_GetSystemClock();
//  379 //              timerOn = TRUE;
//  380 //            }
//  381           }
//  382 
//  383           // Action taken when confirmation is received: Send the next message.
//  384           //TransmitApp_SetSendEvt();
//  385           break;
//  386 
//  387         case AF_INCOMING_MSG_CMD:
//  388           TransmitApp_MessageMSGCB( MSGpkt );
//  389           break;
//  390 
//  391         case ZDO_STATE_CHANGE:
//  392           TransmitApp_NwkState = (devStates_t)(MSGpkt->hdr.status);
//  393           break;
//  394 
//  395         default:
//  396           break;
//  397       }
//  398 
//  399       // Release the memory
//  400       osal_msg_deallocate( (uint8 *)MSGpkt );
??TransmitApp_ProcessEvent_4:
        ; Setup parameters for call to function osal_msg_deallocate
        MOV     R2,?V0 + 0
        MOV     R3,?V0 + 1
        LCALL   ??osal_msg_deallocate?relay
//  401 
//  402       // Next
//  403       MSGpkt = (afIncomingMSGPacket_t *)osal_msg_receive( TransmitApp_TaskID );
        ; Setup parameters for call to function osal_msg_receive
??TransmitApp_ProcessEvent_2:
        MOV     DPTR,#TransmitApp_TaskID
        MOVX    A,@DPTR
        MOV     R1,A
        LCALL   ??osal_msg_receive?relay
        MOV     ?V0 + 0,R2
        MOV     ?V0 + 1,R3
        MOV     A,?V0 + 0
        JNZ     ??TransmitApp_ProcessEvent_5
        MOV     A,?V0 + 1
??TransmitApp_ProcessEvent_5:
        JZ      ??TransmitApp_ProcessEvent_6
        MOV     DPL,?V0 + 0
        MOV     DPH,?V0 + 1
        MOVX    A,@DPTR
        LCALL   ?UC_SWITCH_SPARSE
`?<Jumptable for TransmitApp_ProcessEvent>_0`:
        DATA
        DB        0
        DB        5
        DB        26
        DW        ??TransmitApp_ProcessEvent_7
        DB        192
        DW        ??TransmitApp_ProcessEvent_8
        DB        209
        DW        ??TransmitApp_ProcessEvent_9
        DB        211
        DW        ??TransmitApp_ProcessEvent_3
        DB        253
        DW        ??TransmitApp_ProcessEvent_10
        DW        ??TransmitApp_ProcessEvent_4
        CODE
??TransmitApp_ProcessEvent_8:
        ; Setup parameters for call to function TransmitApp_HandleKeys
        MOV     DPL,?V0 + 0
        MOV     DPH,?V0 + 1
        INC     DPTR
        INC     DPTR
        INC     DPTR
        LCALL   ?Subroutine9 & 0xFFFF
??CrossCallReturnLabel_14:
        MOV     R1,A
        LCALL   ??TransmitApp_HandleKeys?relay
        SJMP    ??TransmitApp_ProcessEvent_4
??TransmitApp_ProcessEvent_10:
        MOV     DPL,?V0 + 0
        MOV     DPH,?V0 + 1
        INC     DPTR
        MOVX    A,@DPTR
        JNZ     ??TransmitApp_ProcessEvent_4
        MOV     DPTR,#TransmitApp_epDesc
        LCALL   ?Subroutine9 & 0xFFFF
??CrossCallReturnLabel_15:
        XRL     A,R2
        JNZ     ??TransmitApp_ProcessEvent_4
        ; Setup parameters for call to function HalLedSet
        MOV     R2,#0x2
        MOV     R1,#0x1
        LCALL   ??HalLedSet?relay
        SJMP    ??TransmitApp_ProcessEvent_4
??TransmitApp_ProcessEvent_7:
        ; Setup parameters for call to function TransmitApp_MessageMSGCB
        MOV     R2,?V0 + 0
        MOV     R3,?V0 + 1
        LCALL   ??TransmitApp_MessageMSGCB?relay
        SJMP    ??TransmitApp_ProcessEvent_4
??TransmitApp_ProcessEvent_9:
        MOV     DPL,?V0 + 0
        MOV     DPH,?V0 + 1
        INC     DPTR
        MOVX    A,@DPTR
        MOV     DPTR,#TransmitApp_NwkState
        MOVX    @DPTR,A
        SJMP    ??TransmitApp_ProcessEvent_4
//  404     }
//  405 
//  406     // Squash compiler warnings until values are used.
//  407     (void)sentStatus;
//  408     (void)sentEP;
//  409 
//  410     // Return unprocessed events
//  411     return (events ^ SYS_EVENT_MSG);
??TransmitApp_ProcessEvent_6:
        MOV     A,R6
        MOV     R2,A
        MOV     A,#-0x80
        XRL     A,R7
??TransmitApp_ProcessEvent_11:
        MOV     R3,A
        SJMP    ??TransmitApp_ProcessEvent_12
//  412   }
//  413 
//  414   // Send a message out
//  415   if ( events & TRANSMITAPP_SEND_MSG_EVT )
??TransmitApp_ProcessEvent_1:
        MOV     A,R6
        MOV     C,0xE0 /* A   */.0
        JNC     ??TransmitApp_ProcessEvent_13
//  416   {
//  417     if ( TransmitApp_State == TRANSMITAPP_STATE_SENDING )
        MOV     DPTR,#TransmitApp_State
        MOVX    A,@DPTR
        XRL     A,#0x1
        JNZ     ??TransmitApp_ProcessEvent_14
//  418     { TransmitApp_State = TRANSMITAPP_STATE_WAITING;
        CLR     A
        MOVX    @DPTR,A
//  419       TransmitApp_SendTheMessage();
        ; Setup parameters for call to function TransmitApp_SendTheMessage
        LCALL   ??TransmitApp_SendTheMessage?relay
//  420     }
//  421 
//  422     // Return unprocessed events
//  423     return (events ^ TRANSMITAPP_SEND_MSG_EVT);
??TransmitApp_ProcessEvent_14:
        MOV     A,#0x1
??TransmitApp_ProcessEvent_15:
        XRL     A,R6
        MOV     R2,A
        MOV     A,R7
        SJMP    ??TransmitApp_ProcessEvent_11
//  424   }
//  425 
//  426   // Timed wait from error
//  427   if ( events & TRANSMITAPP_SEND_ERR_EVT )
??TransmitApp_ProcessEvent_13:
        ANL     A,#0x4
        JZ      ??TransmitApp_ProcessEvent_16
//  428   {
//  429     TransmitApp_SetSendEvt();
        ; Setup parameters for call to function TransmitApp_SetSendEvt
        LCALL   ??TransmitApp_SetSendEvt?relay
//  430 
//  431     // Return unprocessed events
//  432     return (events ^ TRANSMITAPP_SEND_ERR_EVT);
        MOV     A,#0x4
        SJMP    ??TransmitApp_ProcessEvent_15
//  433   }
//  434 
//  435   // Receive timer
//  436   if ( events & TRANSMITAPP_RCVTIMER_EVT )
??TransmitApp_ProcessEvent_16:
        MOV     A,R6
        ANL     A,#0x2
        JZ      ??TransmitApp_ProcessEvent_17
//  437   {
//  438     // Setup to display the next result
//  439     //osal_start_timerEx( TransmitApp_TaskID, TRANSMITAPP_RCVTIMER_EVT,
//  440     //                                        TRANSMITAPP_DISPLAY_TIMER );
//  441     //TransmitApp_DisplayResults();
//  442 
//  443     return (events ^ TRANSMITAPP_RCVTIMER_EVT);
        MOV     A,#0x2
        XRL     A,R6
        MOV     R2,A
        SJMP    ??TransmitApp_ProcessEvent_12
//  444   }
//  445   
//  446 
//  447   // Discard unknown events
//  448   return 0;
??TransmitApp_ProcessEvent_17:
        MOV     R2,#0x0
        MOV     R3,#0x0
        CFI EndBlock cfiBlock1
??TransmitApp_ProcessEvent_12:
        REQUIRE ?Subroutine0
        ; // Fall through to label ?Subroutine0
//  449 }

        RSEG BANKED_CODE:CODE:NOROOT(0)
?Subroutine0:
        CFI Block cfiBlock2 Using cfiCommon0
        CFI NoFunction
        CFI CFA_SP SP+0
        CFI CFA_XSP16 add(XSP16, 12)
        CFI VB load(1, XDATA, add(CFA_XSP16, literal(-11)))
        CFI DPL0 load(1, XDATA, add(CFA_XSP16, literal(-2)))
        CFI DPH0 load(1, XDATA, add(CFA_XSP16, literal(-1)))
        CFI R6 load(1, XDATA, add(CFA_XSP16, literal(-12)))
        CFI R7 load(1, XDATA, add(CFA_XSP16, literal(-6)))
        CFI V0 load(1, XDATA, add(CFA_XSP16, literal(-10)))
        CFI V1 load(1, XDATA, add(CFA_XSP16, literal(-9)))
        CFI V2 load(1, XDATA, add(CFA_XSP16, literal(-8)))
        CFI V3 load(1, XDATA, add(CFA_XSP16, literal(-7)))
        CFI ?BRET_EXT load(1, XDATA, add(CFA_XSP16, literal(-3)))
        CFI ?RET_HIGH load(1, XDATA, add(CFA_XSP16, literal(-4)))
        CFI ?RET_LOW load(1, XDATA, add(CFA_XSP16, literal(-5)))
        MOV     R7,#0x4
        LJMP    ?BANKED_LEAVE_XDATA
        CFI EndBlock cfiBlock2

        RSEG BANKED_CODE:CODE:NOROOT(0)
?Subroutine9:
        CFI Block cfiCond3 Using cfiCommon0
        CFI NoFunction
        CFI Conditional ??CrossCallReturnLabel_14
        CFI R6 load(1, XDATA, add(CFA_XSP16, literal(-12)))
        CFI VB load(1, XDATA, add(CFA_XSP16, literal(-11)))
        CFI V0 load(1, XDATA, add(CFA_XSP16, literal(-10)))
        CFI V1 load(1, XDATA, add(CFA_XSP16, literal(-9)))
        CFI V2 load(1, XDATA, add(CFA_XSP16, literal(-8)))
        CFI V3 load(1, XDATA, add(CFA_XSP16, literal(-7)))
        CFI R7 load(1, XDATA, add(CFA_XSP16, literal(-6)))
        CFI ?RET_LOW load(1, XDATA, add(CFA_XSP16, literal(-5)))
        CFI ?RET_HIGH load(1, XDATA, add(CFA_XSP16, literal(-4)))
        CFI ?BRET_EXT load(1, XDATA, add(CFA_XSP16, literal(-3)))
        CFI DPL0 load(1, XDATA, add(CFA_XSP16, literal(-2)))
        CFI DPH0 load(1, XDATA, add(CFA_XSP16, literal(-1)))
        CFI CFA_SP SP+0
        CFI CFA_XSP16 add(XSP16, 12)
        CFI Block cfiCond4 Using cfiCommon0
        CFI (cfiCond4) NoFunction
        CFI (cfiCond4) Conditional ??CrossCallReturnLabel_15
        CFI (cfiCond4) R6 load(1, XDATA, add(CFA_XSP16, literal(-12)))
        CFI (cfiCond4) VB load(1, XDATA, add(CFA_XSP16, literal(-11)))
        CFI (cfiCond4) V0 load(1, XDATA, add(CFA_XSP16, literal(-10)))
        CFI (cfiCond4) V1 load(1, XDATA, add(CFA_XSP16, literal(-9)))
        CFI (cfiCond4) V2 load(1, XDATA, add(CFA_XSP16, literal(-8)))
        CFI (cfiCond4) V3 load(1, XDATA, add(CFA_XSP16, literal(-7)))
        CFI (cfiCond4) R7 load(1, XDATA, add(CFA_XSP16, literal(-6)))
        CFI (cfiCond4) ?RET_LOW load(1, XDATA, add(CFA_XSP16, literal(-5)))
        CFI (cfiCond4) ?RET_HIGH load(1, XDATA, add(CFA_XSP16, literal(-4)))
        CFI (cfiCond4) ?BRET_EXT load(1, XDATA, add(CFA_XSP16, literal(-3)))
        CFI (cfiCond4) DPL0 load(1, XDATA, add(CFA_XSP16, literal(-2)))
        CFI (cfiCond4) DPH0 load(1, XDATA, add(CFA_XSP16, literal(-1)))
        CFI (cfiCond4) CFA_SP SP+0
        CFI (cfiCond4) CFA_XSP16 add(XSP16, 12)
        CFI Block cfiPicker5 Using cfiCommon1
        CFI (cfiPicker5) NoFunction
        CFI (cfiPicker5) Picker
        MOVX    A,@DPTR
        MOV     R2,A
        MOV     DPL,?V0 + 0
        MOV     DPH,?V0 + 1
        INC     DPTR
        INC     DPTR
        MOVX    A,@DPTR
        RET
        CFI EndBlock cfiCond3
        CFI EndBlock cfiCond4
        CFI EndBlock cfiPicker5
//  450 
//  451 /*********************************************************************
//  452  * Event Generation Functions
//  453  */
//  454 /*********************************************************************
//  455  * @fn      TransmitApp_ProcessZDOMsgs()
//  456  *
//  457  * @brief   Process response messages
//  458  *
//  459  * @param   none
//  460  *
//  461  * @return  none
//  462  */

        RSEG BANKED_CODE:CODE:NOROOT(0)
//  463 void TransmitApp_ProcessZDOMsgs( zdoIncomingMsg_t *inMsg )
TransmitApp_ProcessZDOMsgs:
        CFI Block cfiBlock6 Using cfiCommon0
        CFI Function TransmitApp_ProcessZDOMsgs
//  464 {
        FUNCALL TransmitApp_ProcessZDOMsgs, uart_sent
        LOCFRAME ISTACK, 0, STACK
        LOCFRAME PSTACK, 0, STACK
        LOCFRAME XSTACK, 10, STACK
        LOCFRAME IOVERLAY, 0, STATIC
        LOCFRAME DOVERLAY, 0, STATIC
        ARGFRAME ISTACK, 0, STACK
        ARGFRAME PSTACK, 0, STACK
        ARGFRAME XSTACK, 10, STACK
        ARGFRAME IOVERLAY, 0, STATIC
        ARGFRAME DOVERLAY, 0, STATIC
        FUNCALL TransmitApp_ProcessZDOMsgs, HalLedSet
        LOCFRAME ISTACK, 0, STACK
        LOCFRAME PSTACK, 0, STACK
        LOCFRAME XSTACK, 10, STACK
        LOCFRAME IOVERLAY, 0, STATIC
        LOCFRAME DOVERLAY, 0, STATIC
        ARGFRAME ISTACK, 0, STACK
        ARGFRAME PSTACK, 0, STACK
        ARGFRAME XSTACK, 10, STACK
        ARGFRAME IOVERLAY, 0, STATIC
        ARGFRAME DOVERLAY, 0, STATIC
        FUNCALL TransmitApp_ProcessZDOMsgs, uart_sent
        LOCFRAME ISTACK, 0, STACK
        LOCFRAME PSTACK, 0, STACK
        LOCFRAME XSTACK, 10, STACK
        LOCFRAME IOVERLAY, 0, STATIC
        LOCFRAME DOVERLAY, 0, STATIC
        ARGFRAME ISTACK, 0, STACK
        ARGFRAME PSTACK, 0, STACK
        ARGFRAME XSTACK, 10, STACK
        ARGFRAME IOVERLAY, 0, STATIC
        ARGFRAME DOVERLAY, 0, STATIC
        FUNCALL TransmitApp_ProcessZDOMsgs, HalLedSet
        LOCFRAME ISTACK, 0, STACK
        LOCFRAME PSTACK, 0, STACK
        LOCFRAME XSTACK, 10, STACK
        LOCFRAME IOVERLAY, 0, STATIC
        LOCFRAME DOVERLAY, 0, STATIC
        ARGFRAME ISTACK, 0, STACK
        ARGFRAME PSTACK, 0, STACK
        ARGFRAME XSTACK, 10, STACK
        ARGFRAME IOVERLAY, 0, STATIC
        ARGFRAME DOVERLAY, 0, STATIC
        FUNCALL TransmitApp_ProcessZDOMsgs, ZDO_ParseEPListRsp
        LOCFRAME ISTACK, 0, STACK
        LOCFRAME PSTACK, 0, STACK
        LOCFRAME XSTACK, 10, STACK
        LOCFRAME IOVERLAY, 0, STATIC
        LOCFRAME DOVERLAY, 0, STATIC
        ARGFRAME ISTACK, 0, STACK
        ARGFRAME PSTACK, 0, STACK
        ARGFRAME XSTACK, 10, STACK
        ARGFRAME IOVERLAY, 0, STATIC
        ARGFRAME DOVERLAY, 0, STATIC
        FUNCALL TransmitApp_ProcessZDOMsgs, uart_sent
        LOCFRAME ISTACK, 0, STACK
        LOCFRAME PSTACK, 0, STACK
        LOCFRAME XSTACK, 10, STACK
        LOCFRAME IOVERLAY, 0, STATIC
        LOCFRAME DOVERLAY, 0, STATIC
        ARGFRAME ISTACK, 0, STACK
        ARGFRAME PSTACK, 0, STACK
        ARGFRAME XSTACK, 10, STACK
        ARGFRAME IOVERLAY, 0, STATIC
        ARGFRAME DOVERLAY, 0, STATIC
        FUNCALL TransmitApp_ProcessZDOMsgs, HalLedSet
        LOCFRAME ISTACK, 0, STACK
        LOCFRAME PSTACK, 0, STACK
        LOCFRAME XSTACK, 10, STACK
        LOCFRAME IOVERLAY, 0, STATIC
        LOCFRAME DOVERLAY, 0, STATIC
        ARGFRAME ISTACK, 0, STACK
        ARGFRAME PSTACK, 0, STACK
        ARGFRAME XSTACK, 10, STACK
        ARGFRAME IOVERLAY, 0, STATIC
        ARGFRAME DOVERLAY, 0, STATIC
        FUNCALL TransmitApp_ProcessZDOMsgs, osal_mem_free
        LOCFRAME ISTACK, 0, STACK
        LOCFRAME PSTACK, 0, STACK
        LOCFRAME XSTACK, 10, STACK
        LOCFRAME IOVERLAY, 0, STATIC
        LOCFRAME DOVERLAY, 0, STATIC
        ARGFRAME ISTACK, 0, STACK
        ARGFRAME PSTACK, 0, STACK
        ARGFRAME XSTACK, 10, STACK
        ARGFRAME IOVERLAY, 0, STATIC
        ARGFRAME DOVERLAY, 0, STATIC
        MOV     A,#-0xa
        LCALL   ?BANKED_ENTER_XDATA
        CFI DPH0 load(1, XDATA, add(CFA_XSP16, literal(-1)))
        CFI DPL0 load(1, XDATA, add(CFA_XSP16, literal(-2)))
        CFI ?BRET_EXT load(1, XDATA, add(CFA_XSP16, literal(-3)))
        CFI ?RET_HIGH load(1, XDATA, add(CFA_XSP16, literal(-4)))
        CFI ?RET_LOW load(1, XDATA, add(CFA_XSP16, literal(-5)))
        CFI R7 load(1, XDATA, add(CFA_XSP16, literal(-6)))
        CFI V1 load(1, XDATA, add(CFA_XSP16, literal(-7)))
        CFI V0 load(1, XDATA, add(CFA_XSP16, literal(-8)))
        CFI VB load(1, XDATA, add(CFA_XSP16, literal(-9)))
        CFI R6 load(1, XDATA, add(CFA_XSP16, literal(-10)))
        CFI CFA_SP SP+0
        CFI CFA_XSP16 add(XSP16, 10)
        ; Saved register size: 10
        ; Auto size: 0
//  465   switch ( inMsg->clusterID )
        MOV     A,R2
        ADD     A,#0xc
        MOV     DPL,A
        MOV     A,R3
        LCALL   ??Subroutine16_0 & 0xFFFF
??CrossCallReturnLabel_26:
        MOVX    A,@DPTR
        MOV     ?V0 + 0,A
        INC     DPTR
        MOVX    A,@DPTR
        MOV     ?V0 + 1,A
        MOV     R0,#?V0 + 0
        LCALL   ?US_SWITCH_SPARSE
`?<Jumptable for TransmitApp_ProcessZDOMsgs>_0`:
        DATA
        DW        0
        DW        2
        DW        32774
        DW        ??TransmitApp_ProcessZDOMsgs_0
        DW        32800
        DW        ??TransmitApp_ProcessZDOMsgs_1
        DW        ??TransmitApp_ProcessZDOMsgs_2
        CODE
//  466   {
//  467     case End_Device_Bind_rsp:
//  468       if ( ZDO_ParseBindRsp( inMsg ) == ZSuccess )
??TransmitApp_ProcessZDOMsgs_1:
        MOV     A,R2
        ADD     A,#0x13
        LCALL   ?Subroutine8 & 0xFFFF
??CrossCallReturnLabel_12:
        MOVX    A,@DPTR
        MOV     R1,#0x0
        JNZ     ??TransmitApp_ProcessZDOMsgs_3
//  469       { uart_sent("Bind Success!\n",0);
        ; Setup parameters for call to function uart_sent
        MOV     R2,#(`?<Constant "Bind Success!\\n">` & 0xff)
        MOV     R3,#((`?<Constant "Bind Success!\\n">` >> 8) & 0xff)
        LCALL   ??uart_sent?relay
//  470         // Light LED
//  471         HalLedSet( HAL_LED_2, HAL_LED_MODE_ON );
        ; Setup parameters for call to function HalLedSet
        MOV     R2,#0x1
??TransmitApp_ProcessZDOMsgs_4:
        MOV     R1,#0x2
        LCALL   ??HalLedSet?relay
        SJMP    ??TransmitApp_ProcessZDOMsgs_2
//  472       }
//  473 #if defined(BLINK_LEDS)
//  474       else
//  475       { uart_sent("Bind failure!\n",0);
??TransmitApp_ProcessZDOMsgs_3:
        ; Setup parameters for call to function uart_sent
        MOV     R2,#(`?<Constant "Bind failure!\\n">` & 0xff)
        MOV     R3,#((`?<Constant "Bind failure!\\n">` >> 8) & 0xff)
        LCALL   ??uart_sent?relay
//  476         // Flash LED to show failure
//  477         HalLedSet ( HAL_LED_2, HAL_LED_MODE_FLASH );
        ; Setup parameters for call to function HalLedSet
        MOV     R2,#0x4
        SJMP    ??TransmitApp_ProcessZDOMsgs_4
//  478       }
//  479 #endif
//  480       break;
//  481 
//  482     case Match_Desc_rsp:
//  483       {
//  484         ZDO_ActiveEndpointRsp_t *pRsp = ZDO_ParseEPListRsp( inMsg );
??TransmitApp_ProcessZDOMsgs_0:
        ; Setup parameters for call to function ZDO_ParseEPListRsp
        LCALL   ??ZDO_ParseEPListRsp?relay
        MOV     ?V0 + 0,R2
        MOV     ?V0 + 1,R3
        MOV     R6,?V0 + 0
        MOV     R7,?V0 + 1
//  485         if ( pRsp )
        MOV     A,R6
        JNZ     ??TransmitApp_ProcessZDOMsgs_5
        MOV     A,R7
??TransmitApp_ProcessZDOMsgs_5:
        JZ      ??TransmitApp_ProcessZDOMsgs_2
//  486         {
//  487           if ( pRsp->status == ZSuccess && pRsp->cnt )
        MOV     DPL,R6
        MOV     DPH,R7
        MOVX    A,@DPTR
        JNZ     ??TransmitApp_ProcessZDOMsgs_6
        INC     DPTR
        INC     DPTR
        INC     DPTR
        MOVX    A,@DPTR
        JZ      ??TransmitApp_ProcessZDOMsgs_6
//  488           { 
//  489             TransmitApp_DstAddr.addrMode = (afAddrMode_t)Addr16Bit;
        MOV     A,#0x2
        MOV     DPTR,#(TransmitApp_DstAddr + 8)
        MOVX    @DPTR,A
//  490             TransmitApp_DstAddr.addr.shortAddr = pRsp->nwkAddr;
        MOV     DPL,R6
        MOV     DPH,R7
        INC     DPTR
        MOVX    A,@DPTR
        MOV     R0,A
        INC     DPTR
        MOVX    A,@DPTR
        MOV     R1,A
        MOV     DPTR,#TransmitApp_DstAddr
        MOV     A,R0
        MOVX    @DPTR,A
        INC     DPTR
        MOV     A,R1
        LCALL   ?Subroutine5 & 0xFFFF
//  491             // Take the first endpoint, Can be changed to search through endpoints
//  492             TransmitApp_DstAddr.endPoint = pRsp->epList[0];
??CrossCallReturnLabel_6:
        MOVX    A,@DPTR
        MOV     DPTR,#(TransmitApp_DstAddr + 9)
        MOVX    @DPTR,A
//  493             
//  494             uart_sent("Match_Desc_rsp Sucess!\n",0);
        ; Setup parameters for call to function uart_sent
        MOV     R1,#0x0
        MOV     R2,#(`?<Constant "Match_Desc_rsp Sucess!\\n">` & 0xff)
        MOV     R3,#((`?<Constant "Match_Desc_rsp Sucess!\\n">` >> 8) & 0xff)
        LCALL   ??uart_sent?relay
//  495             // Light LED
//  496             HalLedSet( HAL_LED_2, HAL_LED_MODE_ON );
        ; Setup parameters for call to function HalLedSet
        MOV     R2,#0x1
        MOV     R1,#0x2
        LCALL   ??HalLedSet?relay
//  497           }
//  498           osal_mem_free( pRsp );
??TransmitApp_ProcessZDOMsgs_6:
        ; Setup parameters for call to function osal_mem_free
        MOV     A,R6
        MOV     R2,A
        MOV     A,R7
        MOV     R3,A
        LCALL   ??osal_mem_free?relay
        CFI EndBlock cfiBlock6
//  499         }
//  500       }
//  501       break;
//  502   }
//  503 }
??TransmitApp_ProcessZDOMsgs_2:
        REQUIRE ?Subroutine1
        ; // Fall through to label ?Subroutine1

        RSEG BANKED_CODE:CODE:NOROOT(0)
?Subroutine1:
        CFI Block cfiBlock7 Using cfiCommon0
        CFI NoFunction
        CFI CFA_SP SP+0
        CFI CFA_XSP16 add(XSP16, 10)
        CFI VB load(1, XDATA, add(CFA_XSP16, literal(-9)))
        CFI DPL0 load(1, XDATA, add(CFA_XSP16, literal(-2)))
        CFI DPH0 load(1, XDATA, add(CFA_XSP16, literal(-1)))
        CFI R6 load(1, XDATA, add(CFA_XSP16, literal(-10)))
        CFI R7 load(1, XDATA, add(CFA_XSP16, literal(-6)))
        CFI V0 load(1, XDATA, add(CFA_XSP16, literal(-8)))
        CFI V1 load(1, XDATA, add(CFA_XSP16, literal(-7)))
        CFI ?BRET_EXT load(1, XDATA, add(CFA_XSP16, literal(-3)))
        CFI ?RET_HIGH load(1, XDATA, add(CFA_XSP16, literal(-4)))
        CFI ?RET_LOW load(1, XDATA, add(CFA_XSP16, literal(-5)))
        MOV     R7,#0x2
        LJMP    ?BANKED_LEAVE_XDATA
        CFI EndBlock cfiBlock7
//  504 
//  505 /*********************************************************************
//  506  * @fn      TransmitApp_HandleKeys
//  507  *
//  508  * @brief   Handles all key events for this device.
//  509  *
//  510  * @param   shift - true if in shift/alt.
//  511  * @param   keys - bit field for key events. Valid entries:
//  512  *                 EVAL_SW4
//  513  *                 EVAL_SW3
//  514  *                 EVAL_SW2
//  515  *                 EVAL_SW1
//  516  *
//  517  * @return  none
//  518  */

        RSEG BANKED_CODE:CODE:NOROOT(0)
//  519 void TransmitApp_HandleKeys( byte shift, byte keys )
TransmitApp_HandleKeys:
        CFI Block cfiBlock8 Using cfiCommon0
        CFI Function TransmitApp_HandleKeys
//  520 {
        FUNCALL TransmitApp_HandleKeys, HalLedSet
        LOCFRAME ISTACK, 0, STACK
        LOCFRAME PSTACK, 0, STACK
        LOCFRAME XSTACK, 20, STACK
        LOCFRAME IOVERLAY, 0, STATIC
        LOCFRAME DOVERLAY, 0, STATIC
        ARGFRAME ISTACK, 0, STACK
        ARGFRAME PSTACK, 0, STACK
        ARGFRAME XSTACK, 20, STACK
        ARGFRAME IOVERLAY, 0, STATIC
        ARGFRAME DOVERLAY, 0, STATIC
        FUNCALL TransmitApp_HandleKeys, uart_sent
        LOCFRAME ISTACK, 0, STACK
        LOCFRAME PSTACK, 0, STACK
        LOCFRAME XSTACK, 20, STACK
        LOCFRAME IOVERLAY, 0, STATIC
        LOCFRAME DOVERLAY, 0, STATIC
        ARGFRAME ISTACK, 0, STACK
        ARGFRAME PSTACK, 0, STACK
        ARGFRAME XSTACK, 20, STACK
        ARGFRAME IOVERLAY, 0, STATIC
        ARGFRAME DOVERLAY, 0, STATIC
        FUNCALL TransmitApp_HandleKeys, uart_sent
        LOCFRAME ISTACK, 0, STACK
        LOCFRAME PSTACK, 0, STACK
        LOCFRAME XSTACK, 20, STACK
        LOCFRAME IOVERLAY, 0, STATIC
        LOCFRAME DOVERLAY, 0, STATIC
        ARGFRAME ISTACK, 0, STACK
        ARGFRAME PSTACK, 0, STACK
        ARGFRAME XSTACK, 20, STACK
        ARGFRAME IOVERLAY, 0, STATIC
        ARGFRAME DOVERLAY, 0, STATIC
        FUNCALL TransmitApp_HandleKeys, HalLedSet
        LOCFRAME ISTACK, 0, STACK
        LOCFRAME PSTACK, 0, STACK
        LOCFRAME XSTACK, 20, STACK
        LOCFRAME IOVERLAY, 0, STATIC
        LOCFRAME DOVERLAY, 0, STATIC
        ARGFRAME ISTACK, 0, STACK
        ARGFRAME PSTACK, 0, STACK
        ARGFRAME XSTACK, 20, STACK
        ARGFRAME IOVERLAY, 0, STATIC
        ARGFRAME DOVERLAY, 0, STATIC
        FUNCALL TransmitApp_HandleKeys, NLME_GetShortAddr
        LOCFRAME ISTACK, 0, STACK
        LOCFRAME PSTACK, 0, STACK
        LOCFRAME XSTACK, 20, STACK
        LOCFRAME IOVERLAY, 0, STATIC
        LOCFRAME DOVERLAY, 0, STATIC
        ARGFRAME ISTACK, 0, STACK
        ARGFRAME PSTACK, 0, STACK
        ARGFRAME XSTACK, 20, STACK
        ARGFRAME IOVERLAY, 0, STATIC
        ARGFRAME DOVERLAY, 0, STATIC
        FUNCALL TransmitApp_HandleKeys, ZDP_EndDeviceBindReq
        LOCFRAME ISTACK, 0, STACK
        LOCFRAME PSTACK, 0, STACK
        LOCFRAME XSTACK, 29, STACK
        LOCFRAME IOVERLAY, 0, STATIC
        LOCFRAME DOVERLAY, 0, STATIC
        ARGFRAME ISTACK, 0, STACK
        ARGFRAME PSTACK, 0, STACK
        ARGFRAME XSTACK, 29, STACK
        ARGFRAME IOVERLAY, 0, STATIC
        ARGFRAME DOVERLAY, 0, STATIC
        FUNCALL TransmitApp_HandleKeys, uart_sent
        LOCFRAME ISTACK, 0, STACK
        LOCFRAME PSTACK, 0, STACK
        LOCFRAME XSTACK, 20, STACK
        LOCFRAME IOVERLAY, 0, STATIC
        LOCFRAME DOVERLAY, 0, STATIC
        ARGFRAME ISTACK, 0, STACK
        ARGFRAME PSTACK, 0, STACK
        ARGFRAME XSTACK, 20, STACK
        ARGFRAME IOVERLAY, 0, STATIC
        ARGFRAME DOVERLAY, 0, STATIC
        FUNCALL TransmitApp_HandleKeys, uart_sent
        LOCFRAME ISTACK, 0, STACK
        LOCFRAME PSTACK, 0, STACK
        LOCFRAME XSTACK, 20, STACK
        LOCFRAME IOVERLAY, 0, STATIC
        LOCFRAME DOVERLAY, 0, STATIC
        ARGFRAME ISTACK, 0, STACK
        ARGFRAME PSTACK, 0, STACK
        ARGFRAME XSTACK, 20, STACK
        ARGFRAME IOVERLAY, 0, STATIC
        ARGFRAME DOVERLAY, 0, STATIC
        FUNCALL TransmitApp_HandleKeys, TransmitApp_SetSendEvt
        LOCFRAME ISTACK, 0, STACK
        LOCFRAME PSTACK, 0, STACK
        LOCFRAME XSTACK, 20, STACK
        LOCFRAME IOVERLAY, 0, STATIC
        LOCFRAME DOVERLAY, 0, STATIC
        ARGFRAME ISTACK, 0, STACK
        ARGFRAME PSTACK, 0, STACK
        ARGFRAME XSTACK, 20, STACK
        ARGFRAME IOVERLAY, 0, STATIC
        ARGFRAME DOVERLAY, 0, STATIC
        FUNCALL TransmitApp_HandleKeys, uart_sent
        LOCFRAME ISTACK, 0, STACK
        LOCFRAME PSTACK, 0, STACK
        LOCFRAME XSTACK, 20, STACK
        LOCFRAME IOVERLAY, 0, STATIC
        LOCFRAME DOVERLAY, 0, STATIC
        ARGFRAME ISTACK, 0, STACK
        ARGFRAME PSTACK, 0, STACK
        ARGFRAME XSTACK, 20, STACK
        ARGFRAME IOVERLAY, 0, STATIC
        ARGFRAME DOVERLAY, 0, STATIC
        FUNCALL TransmitApp_HandleKeys, uart_sent
        LOCFRAME ISTACK, 0, STACK
        LOCFRAME PSTACK, 0, STACK
        LOCFRAME XSTACK, 20, STACK
        LOCFRAME IOVERLAY, 0, STATIC
        LOCFRAME DOVERLAY, 0, STATIC
        ARGFRAME ISTACK, 0, STACK
        ARGFRAME PSTACK, 0, STACK
        ARGFRAME XSTACK, 20, STACK
        ARGFRAME IOVERLAY, 0, STATIC
        ARGFRAME DOVERLAY, 0, STATIC
        FUNCALL TransmitApp_HandleKeys, TransmitApp_SetSendEvt
        LOCFRAME ISTACK, 0, STACK
        LOCFRAME PSTACK, 0, STACK
        LOCFRAME XSTACK, 20, STACK
        LOCFRAME IOVERLAY, 0, STATIC
        LOCFRAME DOVERLAY, 0, STATIC
        ARGFRAME ISTACK, 0, STACK
        ARGFRAME PSTACK, 0, STACK
        ARGFRAME XSTACK, 20, STACK
        ARGFRAME IOVERLAY, 0, STATIC
        ARGFRAME DOVERLAY, 0, STATIC
        MOV     A,#-0xb
        LCALL   ?BANKED_ENTER_XDATA
        CFI DPH0 load(1, XDATA, add(CFA_XSP16, literal(-1)))
        CFI DPL0 load(1, XDATA, add(CFA_XSP16, literal(-2)))
        CFI ?BRET_EXT load(1, XDATA, add(CFA_XSP16, literal(-3)))
        CFI ?RET_HIGH load(1, XDATA, add(CFA_XSP16, literal(-4)))
        CFI ?RET_LOW load(1, XDATA, add(CFA_XSP16, literal(-5)))
        CFI R7 load(1, XDATA, add(CFA_XSP16, literal(-6)))
        CFI V2 load(1, XDATA, add(CFA_XSP16, literal(-7)))
        CFI V1 load(1, XDATA, add(CFA_XSP16, literal(-8)))
        CFI V0 load(1, XDATA, add(CFA_XSP16, literal(-9)))
        CFI VB load(1, XDATA, add(CFA_XSP16, literal(-10)))
        CFI R6 load(1, XDATA, add(CFA_XSP16, literal(-11)))
        CFI CFA_SP SP+0
        CFI CFA_XSP16 add(XSP16, 11)
        ; Saved register size: 11
        ; Auto size: 9
        MOV     A,#-0x9
        LCALL   ?ALLOC_XSTACK8
        CFI CFA_XSP16 add(XSP16, 20)
        MOV     A,R1
        MOV     R6,A
        MOV     A,R2
        MOV     R7,A
//  521   zAddrType_t dstAddr;
//  522    HalLedSet ( HAL_LED_1, HAL_LED_MODE_BLINK );
        ; Setup parameters for call to function HalLedSet
        MOV     R2,#0x2
        MOV     R1,#0x1
        LCALL   ??HalLedSet?relay
//  523   // Shift is used to make each button/switch dual purpose.
//  524   if ( shift )
        MOV     A,R6
        JZ      $+5
        LJMP    ??CrossCallReturnLabel_5 & 0xFFFF
//  525   {
//  526     if ( keys & HAL_KEY_SW_1 )
//  527     {
//  528     }
//  529     if ( keys & HAL_KEY_SW_2 )
//  530     {
//  531     }
//  532     if ( keys & HAL_KEY_SW_3 )
//  533     {
//  534     }
//  535     if ( keys & HAL_KEY_SW_4 )
//  536     {
//  537     }
//  538   }
//  539   else
//  540   {
//  541     if ( keys & HAL_KEY_KEY_1 )
        MOV     A,R7
        MOV     C,0xE0 /* A   */.0
        JNC     ??TransmitApp_HandleKeys_0
//  542     {   //uart_sent( "Initiate a Match Description Request (Service Discovery) \n",0);
//  543       uart_sent("<---",0);
        ; Setup parameters for call to function uart_sent
        MOV     R1,#0x0
        MOV     R2,#(`?<Constant "<---">` & 0xff)
        MOV     R3,#((`?<Constant "<---">` >> 8) & 0xff)
        LCALL   ??uart_sent?relay
//  544 //      rxTotal = txTotal = 0;
//  545 //      rxAccum = txAccum = 0;
//  546 //      TransmitApp_DisplayResults();
//  547 //      HalLedSet ( HAL_LED_2, HAL_LED_MODE_OFF );
//  548 //
//  549       // Initiate a Match Description Request (Service Discovery)
//  550 //      dstAddr.addrMode = AddrBroadcast;
//  551 //      dstAddr.addr.shortAddr = NWK_BROADCAST_SHORTADDR;
//  552 //      ZDP_MatchDescReq( &dstAddr, NWK_BROADCAST_SHORTADDR,
//  553 //                        TRANSMITAPP_PROFID,
//  554 //                        TRANSMITAPP_MAX_CLUSTERS, (cId_t *)TransmitApp_ClusterList,
//  555 //                        TRANSMITAPP_MAX_CLUSTERS, (cId_t *)TransmitApp_ClusterList,
//  556 //                        FALSE );      
//  557     }
//  558 
//  559     if ( keys & HAL_KEY_KEY_2 )
??TransmitApp_HandleKeys_0:
        MOV     A,R7
        MOV     C,0xE0 /* A   */.1
        JNC     ??TransmitApp_HandleKeys_1
//  560     { uart_sent("Binding~\n",0);
        ; Setup parameters for call to function uart_sent
        MOV     R1,#0x0
        MOV     R2,#(`?<Constant "Binding~\\n">` & 0xff)
        MOV     R3,#((`?<Constant "Binding~\\n">` >> 8) & 0xff)
        LCALL   ??uart_sent?relay
//  561       HalLedSet ( HAL_LED_2, HAL_LED_MODE_OFF );
        ; Setup parameters for call to function HalLedSet
        MOV     R2,#0x0
        MOV     R1,#0x2
        LCALL   ??HalLedSet?relay
//  562 
//  563       // Initiate an End Device Bind Request for the mandatory endpoint
//  564       dstAddr.addrMode = Addr16Bit;
        MOV     A,#0x8
        LCALL   ?XSTACK_DISP0_8
        MOV     A,#0x2
        MOVX    @DPTR,A
//  565       dstAddr.addr.shortAddr = 0x0000; // Coordinator
        MOV     DPL,?XSP + 0
        MOV     DPH,?XSP + 1
        CLR     A
        MOVX    @DPTR,A
        INC     DPTR
        MOVX    @DPTR,A
//  566       ZDP_EndDeviceBindReq( &dstAddr, NLME_GetShortAddr(),
//  567                             TransmitApp_epDesc.endPoint,
//  568                             TRANSMITAPP_PROFID,
//  569                             TRANSMITAPP_MAX_CLUSTERS, (cId_t *)TransmitApp_ClusterList,
//  570                             TRANSMITAPP_MAX_CLUSTERS, (cId_t *)TransmitApp_ClusterList,
//  571                             FALSE );
        ; Setup parameters for call to function NLME_GetShortAddr
        LCALL   ??NLME_GetShortAddr?relay
        MOV     ?V0 + 0,R2
        MOV     ?V0 + 1,R3
        MOV     R4,?V0 + 0
        MOV     R5,?V0 + 1
        MOV     ?V0 + 0,#(TransmitApp_ClusterList & 0xff)
        MOV     ?V0 + 1,#((TransmitApp_ClusterList >> 8) & 0xff)
        ; Setup parameters for call to function ZDP_EndDeviceBindReq
        MOV     ?V0 + 2,#0x0
        MOV     R0,#?V0 + 2
        LCALL   ?PUSH_XSTACK_I_ONE
        CFI CFA_XSP16 add(XSP16, 21)
        MOV     R0,#?V0 + 0
        LCALL   ?PUSH_XSTACK_I_TWO
        CFI CFA_XSP16 add(XSP16, 23)
        MOV     ?V0 + 2,#0x1
        MOV     R0,#?V0 + 2
        LCALL   ?PUSH_XSTACK_I_ONE
        CFI CFA_XSP16 add(XSP16, 24)
        MOV     R0,#?V0 + 0
        LCALL   ?PUSH_XSTACK_I_TWO
        CFI CFA_XSP16 add(XSP16, 26)
        MOV     ?V0 + 0,#0x1
        MOV     R0,#?V0 + 0
        LCALL   ?PUSH_XSTACK_I_ONE
        CFI CFA_XSP16 add(XSP16, 27)
        MOV     ?V0 + 0,#0x5
        MOV     ?V0 + 1,#0xf
        MOV     R0,#?V0 + 0
        LCALL   ?PUSH_XSTACK_I_TWO
        CFI CFA_XSP16 add(XSP16, 29)
        MOV     DPTR,#TransmitApp_epDesc
        MOVX    A,@DPTR
        MOV     R1,A
        MOV     A,#0x9
        LCALL   ?XSTACK_DISP0_8
        MOV     R2,DPL
        MOV     R3,DPH
        LCALL   ??ZDP_EndDeviceBindReq?relay
        MOV     A,#0x9
        LCALL   ?DEALLOC_XSTACK8
        CFI CFA_XSP16 add(XSP16, 20)
//  572     }
//  573 
//  574     if ( keys & HAL_KEY_KEY_3 )     //¿ª¹ØµÆ
??TransmitApp_HandleKeys_1:
        MOV     A,R7
        MOV     C,0xE0 /* A   */.2
        JNC     ??CrossCallReturnLabel_4
//  575     {
//  576       light = !light;
        MOV     DPTR,#light
        MOVX    A,@DPTR
        JNZ     ??TransmitApp_HandleKeys_2
        MOV     A,#0x1
        MOVX    @DPTR,A
//  577 
//  578       if(light)
//  579       { 
//  580        uart_sent("sent light on cmd---\n",0);
        ; Setup parameters for call to function uart_sent
        MOV     R1,#0x0
        MOV     R2,#(`?<Constant "sent light on cmd---\\n">` & 0xff)
        MOV     R3,#((`?<Constant "sent light on cmd---\\n">` >> 8) & 0xff)
        SJMP    ??TransmitApp_HandleKeys_3
//  581       }
??TransmitApp_HandleKeys_2:
        CLR     A
        MOVX    @DPTR,A
//  582       else
//  583       {
//  584         uart_sent("sent light off cmd---\n",0);
        ; Setup parameters for call to function uart_sent
        MOV     R1,A
        MOV     R2,#(`?<Constant "sent light off cmd---\\n">` & 0xff)
        MOV     R3,#((`?<Constant "sent light off cmd---\\n">` >> 8) & 0xff)
//  585       }
//  586       
//  587 
//  588       TransmitApp_State = TRANSMITAPP_STATE_SENDING;
//  589       timesToSend = 2;
//  590       TransmitApp_SetSendEvt();
//  591       //TransmitApp_ChangeState();
//  592     
//  593     }
??TransmitApp_HandleKeys_3:
        LCALL   ?Subroutine4 & 0xFFFF
//  594 
//  595     if ( keys & HAL_KEY_KEY_4 )     //±¨¾¯
??CrossCallReturnLabel_4:
        MOV     A,R7
        MOV     C,0xE0 /* A   */.3
        JNC     ??CrossCallReturnLabel_5
//  596     { alarm = !alarm;
        MOV     DPTR,#alarm
        MOVX    A,@DPTR
        JNZ     ??TransmitApp_HandleKeys_4
        MOV     A,#0x1
        MOVX    @DPTR,A
//  597 
//  598       if(alarm)
//  599       {  
//  600        uart_sent("sent alarm on cmd---\n",0);
        ; Setup parameters for call to function uart_sent
        MOV     R1,#0x0
        MOV     R2,#(`?<Constant "sent alarm on cmd---\\n">` & 0xff)
        MOV     R3,#((`?<Constant "sent alarm on cmd---\\n">` >> 8) & 0xff)
        SJMP    ??TransmitApp_HandleKeys_5
//  601       }
??TransmitApp_HandleKeys_4:
        CLR     A
        MOVX    @DPTR,A
//  602       else
//  603       {
//  604         uart_sent("sent alrm off cmd---\n",0);
        ; Setup parameters for call to function uart_sent
        MOV     R1,A
        MOV     R2,#(`?<Constant "sent alrm off cmd---\\n">` & 0xff)
        MOV     R3,#((`?<Constant "sent alrm off cmd---\\n">` >> 8) & 0xff)
//  605       }       
//  606 
//  607       TransmitApp_State = TRANSMITAPP_STATE_SENDING;
//  608       timesToSend = 2;
//  609       TransmitApp_SetSendEvt();
//  610 
//  611     }
//  612   }
??TransmitApp_HandleKeys_5:
        LCALL   ?Subroutine4 & 0xFFFF
//  613 }
??CrossCallReturnLabel_5:
        MOV     A,#0x9
        LCALL   ?DEALLOC_XSTACK8
        CFI CFA_XSP16 add(XSP16, 11)
        MOV     R7,#0x3
        LJMP    ?BANKED_LEAVE_XDATA
        CFI EndBlock cfiBlock8

        RSEG BANKED_CODE:CODE:NOROOT(0)
?Subroutine4:
        CFI Block cfiCond9 Using cfiCommon0
        CFI NoFunction
        CFI Conditional ??CrossCallReturnLabel_4
        CFI R6 load(1, XDATA, add(CFA_XSP16, literal(-11)))
        CFI VB load(1, XDATA, add(CFA_XSP16, literal(-10)))
        CFI V0 load(1, XDATA, add(CFA_XSP16, literal(-9)))
        CFI V1 load(1, XDATA, add(CFA_XSP16, literal(-8)))
        CFI V2 load(1, XDATA, add(CFA_XSP16, literal(-7)))
        CFI R7 load(1, XDATA, add(CFA_XSP16, literal(-6)))
        CFI ?RET_LOW load(1, XDATA, add(CFA_XSP16, literal(-5)))
        CFI ?RET_HIGH load(1, XDATA, add(CFA_XSP16, literal(-4)))
        CFI ?BRET_EXT load(1, XDATA, add(CFA_XSP16, literal(-3)))
        CFI DPL0 load(1, XDATA, add(CFA_XSP16, literal(-2)))
        CFI DPH0 load(1, XDATA, add(CFA_XSP16, literal(-1)))
        CFI CFA_SP SP+0
        CFI CFA_XSP16 add(XSP16, 20)
        CFI Block cfiCond10 Using cfiCommon0
        CFI (cfiCond10) NoFunction
        CFI (cfiCond10) Conditional ??CrossCallReturnLabel_5
        CFI (cfiCond10) R6 load(1, XDATA, add(CFA_XSP16, literal(-11)))
        CFI (cfiCond10) VB load(1, XDATA, add(CFA_XSP16, literal(-10)))
        CFI (cfiCond10) V0 load(1, XDATA, add(CFA_XSP16, literal(-9)))
        CFI (cfiCond10) V1 load(1, XDATA, add(CFA_XSP16, literal(-8)))
        CFI (cfiCond10) V2 load(1, XDATA, add(CFA_XSP16, literal(-7)))
        CFI (cfiCond10) R7 load(1, XDATA, add(CFA_XSP16, literal(-6)))
        CFI (cfiCond10) ?RET_LOW load(1, XDATA, add(CFA_XSP16, literal(-5)))
        CFI (cfiCond10) ?RET_HIGH load(1, XDATA, add(CFA_XSP16, literal(-4)))
        CFI (cfiCond10) ?BRET_EXT load(1, XDATA, add(CFA_XSP16, literal(-3)))
        CFI (cfiCond10) DPL0 load(1, XDATA, add(CFA_XSP16, literal(-2)))
        CFI (cfiCond10) DPH0 load(1, XDATA, add(CFA_XSP16, literal(-1)))
        CFI (cfiCond10) CFA_SP SP+0
        CFI (cfiCond10) CFA_XSP16 add(XSP16, 20)
        CFI Block cfiPicker11 Using cfiCommon1
        CFI (cfiPicker11) NoFunction
        CFI (cfiPicker11) Picker
        LCALL   ??uart_sent?relay
        MOV     A,#0x1
        MOV     DPTR,#TransmitApp_State
        MOVX    @DPTR,A
        MOV     A,#0x2
        MOV     DPTR,#timesToSend
        MOVX    @DPTR,A
        ; Setup parameters for call to function TransmitApp_SetSendEvt
        ; Setup parameters for call to function TransmitApp_SetSendEvt
        LCALL   ??TransmitApp_SetSendEvt?relay
        RET
        CFI EndBlock cfiCond9
        CFI EndBlock cfiCond10
        CFI EndBlock cfiPicker11
//  614 
//  615 /*********************************************************************
//  616  * LOCAL FUNCTIONS
//  617  */
//  618 
//  619 /*********************************************************************
//  620  * @fn      TransmitApp_MessageMSGCB
//  621  *
//  622  * @brief   Data message processor callback.  This function processes
//  623  *          any incoming data - probably from other devices.  So, based
//  624  *          on cluster ID, perform the intended action.
//  625  *
//  626  * @param   none
//  627  *
//  628  * @return  none
//  629  */

        RSEG BANKED_CODE:CODE:NOROOT(0)
//  630 void TransmitApp_MessageMSGCB( afIncomingMSGPacket_t *pkt )
TransmitApp_MessageMSGCB:
        CFI Block cfiBlock12 Using cfiCommon0
        CFI Function TransmitApp_MessageMSGCB
//  631 {
        FUNCALL TransmitApp_MessageMSGCB, osal_mem_alloc
        LOCFRAME ISTACK, 0, STACK
        LOCFRAME PSTACK, 0, STACK
        LOCFRAME XSTACK, 12, STACK
        LOCFRAME IOVERLAY, 0, STATIC
        LOCFRAME DOVERLAY, 0, STATIC
        ARGFRAME ISTACK, 0, STACK
        ARGFRAME PSTACK, 0, STACK
        ARGFRAME XSTACK, 12, STACK
        ARGFRAME IOVERLAY, 0, STATIC
        ARGFRAME DOVERLAY, 0, STATIC
        FUNCALL TransmitApp_MessageMSGCB, uart_sent
        LOCFRAME ISTACK, 0, STACK
        LOCFRAME PSTACK, 0, STACK
        LOCFRAME XSTACK, 12, STACK
        LOCFRAME IOVERLAY, 0, STATIC
        LOCFRAME DOVERLAY, 0, STATIC
        ARGFRAME ISTACK, 0, STACK
        ARGFRAME PSTACK, 0, STACK
        ARGFRAME XSTACK, 12, STACK
        ARGFRAME IOVERLAY, 0, STATIC
        ARGFRAME DOVERLAY, 0, STATIC
        FUNCALL TransmitApp_MessageMSGCB, osal_mem_free
        LOCFRAME ISTACK, 0, STACK
        LOCFRAME PSTACK, 0, STACK
        LOCFRAME XSTACK, 12, STACK
        LOCFRAME IOVERLAY, 0, STATIC
        LOCFRAME DOVERLAY, 0, STATIC
        ARGFRAME ISTACK, 0, STACK
        ARGFRAME PSTACK, 0, STACK
        ARGFRAME XSTACK, 12, STACK
        ARGFRAME IOVERLAY, 0, STATIC
        ARGFRAME DOVERLAY, 0, STATIC
        MOV     A,#-0xc
        LCALL   ?BANKED_ENTER_XDATA
        CFI DPH0 load(1, XDATA, add(CFA_XSP16, literal(-1)))
        CFI DPL0 load(1, XDATA, add(CFA_XSP16, literal(-2)))
        CFI ?BRET_EXT load(1, XDATA, add(CFA_XSP16, literal(-3)))
        CFI ?RET_HIGH load(1, XDATA, add(CFA_XSP16, literal(-4)))
        CFI ?RET_LOW load(1, XDATA, add(CFA_XSP16, literal(-5)))
        CFI R7 load(1, XDATA, add(CFA_XSP16, literal(-6)))
        CFI V3 load(1, XDATA, add(CFA_XSP16, literal(-7)))
        CFI V2 load(1, XDATA, add(CFA_XSP16, literal(-8)))
        CFI V1 load(1, XDATA, add(CFA_XSP16, literal(-9)))
        CFI V0 load(1, XDATA, add(CFA_XSP16, literal(-10)))
        CFI VB load(1, XDATA, add(CFA_XSP16, literal(-11)))
        CFI R6 load(1, XDATA, add(CFA_XSP16, literal(-12)))
        CFI CFA_SP SP+0
        CFI CFA_XSP16 add(XSP16, 12)
        ; Saved register size: 12
        ; Auto size: 0
        MOV     ?V0 + 0,R2
        MOV     ?V0 + 1,R3
//  632   int16 i,j;
//  633   uint8 error = FALSE;
//  634 
//  635   switch ( pkt->clusterId )
        MOV     DPL,R2
        MOV     DPH,R3
        INC     DPTR
        INC     DPTR
        INC     DPTR
        INC     DPTR
        MOVX    A,@DPTR
        XRL     A,#0x1
        JNZ     ??TransmitApp_MessageMSGCB_0
        INC     DPTR
        MOVX    A,@DPTR
??TransmitApp_MessageMSGCB_0:
        JZ      $+5
        LJMP    ??TransmitApp_MessageMSGCB_1 & 0xFFFF
//  636   {
//  637     case TRANSMITAPP_CLUSTERID_TESTMSG:
//  638 //#if !defined ( TRANSMITAPP_RANDOM_LEN )
//  639 //      if (pkt->cmd.DataLength != TransmitApp_MaxDataLength)
//  640 //      {
//  641 //        error = TRUE;
//  642 //      }
//  643 //#endif
//  644 
//  645 //      for (i=4; i<pkt->cmd.DataLength; i++)
//  646 //      {
//  647 //        if (pkt->cmd.Data[i] != i%256)
//  648 //          error = TRUE;
//  649 //      }
//  650 //      if (error)
//  651 //      {
//  652 //        // Display error LED
//  653 //        HalLedSet(HAL_LED_1, HAL_LED_MODE_ON);
//  654 //      }
//  655 //      else
//  656 //      {
//  657 //        if ( !timerOn )
//  658 //        {
//  659 //          osal_start_timerEx( TransmitApp_TaskID, TRANSMITAPP_RCVTIMER_EVT,
//  660 //                                                  TRANSMITAPP_DISPLAY_TIMER );
//  661 //          clkShdw = osal_GetSystemClock();
//  662 //          timerOn = TRUE;
//  663 //        }
//  664 //        rxAccum += pkt->cmd.DataLength;
//  665 //      }
//  666 //----------------------------      
//  667       //µÆ¹â
//  668       if (pkt->cmd.Data[4] == 100)
        MOV     A,R2
        ADD     A,#0x21
        LCALL   ?Subroutine8 & 0xFFFF
??CrossCallReturnLabel_13:
        INC     DPTR
        INC     DPTR
        INC     DPTR
        INC     DPTR
        MOVX    A,@DPTR
        XRL     A,#0x64
        JNZ     ??TransmitApp_MessageMSGCB_2
//  669       {P1DIR |= 0x01;
        ORL     0xfe,#0x1
//  670        P1    |= 0x01;
        SETB    0x90.0
        SJMP    ??TransmitApp_MessageMSGCB_3
//  671       }
//  672       else if (pkt->cmd.Data[4] == 0) //¹ØµÆ
??TransmitApp_MessageMSGCB_2:
        MOV     A,R2
        ADD     A,#0x21
        MOV     DPL,A
        MOV     A,R3
        LCALL   ??Subroutine16_0 & 0xFFFF
??CrossCallReturnLabel_27:
        LCALL   ?Subroutine14 & 0xFFFF
??CrossCallReturnLabel_22:
        MOVX    A,@DPTR
        JNZ     ??TransmitApp_MessageMSGCB_3
//  673       {
//  674        P1DIR |= 0x01;
        ORL     0xfe,#0x1
//  675        P1    &= ~0x01;
        CLR     0x90.0
//  676       }
//  677       
//  678       if (pkt->cmd.Data[5] == 1)//±¨¾¯
??TransmitApp_MessageMSGCB_3:
        LCALL   ?Subroutine6 & 0xFFFF
??CrossCallReturnLabel_8:
        XRL     A,#0x1
        JNZ     ??TransmitApp_MessageMSGCB_4
//  679       {P1DIR |= 0x02;
        ORL     0xfe,#0x2
//  680        P1    |= 0x02;
        SETB    0x90.1
        SJMP    ??TransmitApp_MessageMSGCB_5
//  681       }
//  682       else if (pkt->cmd.Data[5] == 0) 
??TransmitApp_MessageMSGCB_4:
        LCALL   ?Subroutine6 & 0xFFFF
??CrossCallReturnLabel_9:
        JNZ     ??TransmitApp_MessageMSGCB_5
//  683       {
//  684        //P1DIR &= ~0x02;
//  685        P1    &= ~0x02;
        CLR     0x90.1
//  686       }      
//  687       
//  688       uint8 *buf;
//  689      // uint8 tmp;
//  690       buf = (uint8 *)osal_mem_alloc( 27 );
??TransmitApp_MessageMSGCB_5:
        ; Setup parameters for call to function osal_mem_alloc
        MOV     R2,#0x1b
        MOV     R3,#0x0
        LCALL   ??osal_mem_alloc?relay
        MOV     ?V0 + 2,R2
        MOV     ?V0 + 3,R3
        MOV     R6,?V0 + 2
        MOV     R7,?V0 + 3
//  691       if(buf)
        MOV     A,R6
        JNZ     ??TransmitApp_MessageMSGCB_6
        MOV     A,R7
??TransmitApp_MessageMSGCB_6:
        JNZ     $+5
        LJMP    ??TransmitApp_MessageMSGCB_1 & 0xFFFF
//  692       {
//  693         for( i =0; i <6 ;i++)
        MOV     R0,#0x0
        MOV     R1,#0x0
//  694         {
//  695           buf[i*5+2] = '0'+(pkt->cmd.Data[i])/100;
??TransmitApp_MessageMSGCB_7:
        MOV     A,R0
        MOV     R2,A
        MOV     A,R1
        MOV     R3,A
        MOV     A,R2
        MOV     B,#0x5
        MUL     AB
        MOV     R2,A
        MOV     R4,B
        MOV     B,#0x5
        MOV     A,R3
        MUL     AB
        ADD     A,R4
        MOV     R3,A
        MOV     A,R6
        ADD     A,R2
        MOV     R2,A
        MOV     A,R7
        ADDC    A,R3
        MOV     R3,A
        MOV     A,?V0 + 0
        ADD     A,#0x21
        MOV     R4,A
        MOV     A,?V0 + 1
        ADDC    A,#0x0
        MOV     R5,A
        MOV     B,#0x64
        LCALL   ?Subroutine7 & 0xFFFF
??CrossCallReturnLabel_10:
        LCALL   ?Subroutine15 & 0xFFFF
??CrossCallReturnLabel_24:
        MOVX    @DPTR,A
//  696           buf[i*5+3] = '0'+(pkt->cmd.Data[i]/10)%10;
        MOV     B,#0xa
        LCALL   ?Subroutine7 & 0xFFFF
??CrossCallReturnLabel_11:
        LCALL   ?Subroutine13 & 0xFFFF
??CrossCallReturnLabel_20:
        MOVX    @DPTR,A
//  697           buf[i*5+4] = '0'+(pkt->cmd.Data[i])%10;
        MOV     DPL,R4
        MOV     DPH,R5
        MOVX    A,@DPTR
        ADD     A,R0
        MOV     R4,A
        INC     DPTR
        MOVX    A,@DPTR
        ADDC    A,R1
        MOV     DPL,R4
        MOV     DPH,A
        MOVX    A,@DPTR
        LCALL   ?Subroutine13 & 0xFFFF
//  698         }
??CrossCallReturnLabel_21:
        INC     DPTR
        MOVX    @DPTR,A
        MOV     A,R0
        ADD     A,#0x1
        INC     R0
        MOV     A,R1
        ADDC    A,#0x0
        MOV     R1,A
        CLR     C
        MOV     A,R0
        SUBB    A,#0x6
        MOV     A,R1
        SUBB    A,#0x0
        MOV     C,0xD0 /* PSW */.2
        XRL     A,PSW
        RLC     A
        JC      ??TransmitApp_MessageMSGCB_7
//  699         
//  700         buf[0 ] = 'H';
        MOV     A,#0x48
        MOV     DPL,R6
        MOV     DPH,R7
        MOVX    @DPTR,A
//  701         buf[1 ] = 'W';
        MOV     A,#0x57
        INC     DPTR
        LCALL   ?Subroutine5 & 0xFFFF
//  702         buf[5 ] = 'W';
??CrossCallReturnLabel_7:
        INC     DPTR
        MOVX    @DPTR,A
//  703         buf[6 ] = 'D';
        MOV     A,#0x44
        MOV     DPL,R6
        MOV     DPH,R7
        INC     DPTR
        INC     DPTR
        INC     DPTR
        INC     DPTR
        INC     DPTR
        INC     DPTR
        MOVX    @DPTR,A
//  704         buf[10] = 'S';
        MOV     A,#0x53
        MOV     DPL,R6
        MOV     DPH,R7
        INC     DPTR
        INC     DPTR
        INC     DPTR
        INC     DPTR
        INC     DPTR
        INC     DPTR
        INC     DPTR
        INC     DPTR
        INC     DPTR
        INC     DPTR
        MOVX    @DPTR,A
//  705         buf[11] = 'D';
        MOV     A,R6
        ADD     A,#0xb
        LCALL   ?Subroutine10 & 0xFFFF
//  706         buf[15] = 'D';
??CrossCallReturnLabel_16:
        ADD     A,#0xf
        LCALL   ?Subroutine10 & 0xFFFF
//  707         buf[16] = 'G';
??CrossCallReturnLabel_17:
        ADD     A,#0x10
        MOV     DPL,A
        MOV     A,R7
        LCALL   ??Subroutine16_0 & 0xFFFF
??CrossCallReturnLabel_28:
        MOV     A,#0x47
        MOVX    @DPTR,A
//  708         buf[20] = 'B';
        MOV     A,R6
        ADD     A,#0x14
        MOV     DPL,A
        MOV     A,R7
        LCALL   ??Subroutine16_0 & 0xFFFF
??CrossCallReturnLabel_29:
        MOV     A,#0x42
        MOVX    @DPTR,A
//  709         buf[21] = 'J';
        MOV     A,R6
        ADD     A,#0x15
        MOV     DPL,A
        MOV     A,R7
        LCALL   ??Subroutine16_0 & 0xFFFF
??CrossCallReturnLabel_30:
        MOV     A,#0x4a
        MOVX    @DPTR,A
//  710         buf[25] = '\n';
        MOV     A,R6
        ADD     A,#0x19
        MOV     DPL,A
        MOV     A,R7
        LCALL   ??Subroutine16_0 & 0xFFFF
??CrossCallReturnLabel_31:
        MOV     A,#0xa
        MOVX    @DPTR,A
//  711         buf[26] = '\0';
        MOV     A,R6
        ADD     A,#0x1a
        MOV     DPL,A
        MOV     A,R7
        LCALL   ??Subroutine16_0 & 0xFFFF
??CrossCallReturnLabel_32:
        CLR     A
        MOVX    @DPTR,A
//  712         
//  713         //HalLcdWriteString( (uint8*)buf, HAL_LCD_LINE_2 );
//  714         //debug_str( (uint8*)buf );
//  715         uart_sent( (uint8*)buf ,27);
        ; Setup parameters for call to function uart_sent
        MOV     R1,#0x1b
        MOV     A,R6
        MOV     R2,A
        MOV     A,R7
        MOV     R3,A
        LCALL   ??uart_sent?relay
//  716         /* Free mem */
//  717         osal_mem_free( buf );
        ; Setup parameters for call to function osal_mem_free
        MOV     A,R6
        MOV     R2,A
        MOV     A,R7
        MOV     R3,A
        LCALL   ??osal_mem_free?relay
//  718       }
//  719 //----------------------------
//  720       break;
//  721 
//  722     // Could receive control messages in the future.
//  723     default:
//  724       break;
//  725   }
//  726 }
??TransmitApp_MessageMSGCB_1:
        LJMP    ?Subroutine0 & 0xFFFF
        CFI EndBlock cfiBlock12
        REQUIRE _A_P1
        REQUIRE P1DIR

        RSEG BANKED_CODE:CODE:NOROOT(0)
?Subroutine13:
        CFI Block cfiCond13 Using cfiCommon0
        CFI NoFunction
        CFI Conditional ??CrossCallReturnLabel_20
        CFI R6 load(1, XDATA, add(CFA_XSP16, literal(-12)))
        CFI VB load(1, XDATA, add(CFA_XSP16, literal(-11)))
        CFI V0 load(1, XDATA, add(CFA_XSP16, literal(-10)))
        CFI V1 load(1, XDATA, add(CFA_XSP16, literal(-9)))
        CFI V2 load(1, XDATA, add(CFA_XSP16, literal(-8)))
        CFI V3 load(1, XDATA, add(CFA_XSP16, literal(-7)))
        CFI R7 load(1, XDATA, add(CFA_XSP16, literal(-6)))
        CFI ?RET_LOW load(1, XDATA, add(CFA_XSP16, literal(-5)))
        CFI ?RET_HIGH load(1, XDATA, add(CFA_XSP16, literal(-4)))
        CFI ?BRET_EXT load(1, XDATA, add(CFA_XSP16, literal(-3)))
        CFI DPL0 load(1, XDATA, add(CFA_XSP16, literal(-2)))
        CFI DPH0 load(1, XDATA, add(CFA_XSP16, literal(-1)))
        CFI CFA_SP SP+0
        CFI CFA_XSP16 add(XSP16, 12)
        CFI Block cfiCond14 Using cfiCommon0
        CFI (cfiCond14) NoFunction
        CFI (cfiCond14) Conditional ??CrossCallReturnLabel_21
        CFI (cfiCond14) R6 load(1, XDATA, add(CFA_XSP16, literal(-12)))
        CFI (cfiCond14) VB load(1, XDATA, add(CFA_XSP16, literal(-11)))
        CFI (cfiCond14) V0 load(1, XDATA, add(CFA_XSP16, literal(-10)))
        CFI (cfiCond14) V1 load(1, XDATA, add(CFA_XSP16, literal(-9)))
        CFI (cfiCond14) V2 load(1, XDATA, add(CFA_XSP16, literal(-8)))
        CFI (cfiCond14) V3 load(1, XDATA, add(CFA_XSP16, literal(-7)))
        CFI (cfiCond14) R7 load(1, XDATA, add(CFA_XSP16, literal(-6)))
        CFI (cfiCond14) ?RET_LOW load(1, XDATA, add(CFA_XSP16, literal(-5)))
        CFI (cfiCond14) ?RET_HIGH load(1, XDATA, add(CFA_XSP16, literal(-4)))
        CFI (cfiCond14) ?BRET_EXT load(1, XDATA, add(CFA_XSP16, literal(-3)))
        CFI (cfiCond14) DPL0 load(1, XDATA, add(CFA_XSP16, literal(-2)))
        CFI (cfiCond14) DPH0 load(1, XDATA, add(CFA_XSP16, literal(-1)))
        CFI (cfiCond14) CFA_SP SP+0
        CFI (cfiCond14) CFA_XSP16 add(XSP16, 12)
        CFI Block cfiPicker15 Using cfiCommon1
        CFI (cfiPicker15) NoFunction
        CFI (cfiPicker15) Picker
        MOV     B,#0xa
        DIV     AB
        MOV     A,B
        LCALL   ?Subroutine15 & 0xFFFF
??CrossCallReturnLabel_25:
        INC     DPTR
        RET
        CFI EndBlock cfiCond13
        CFI EndBlock cfiCond14
        CFI EndBlock cfiPicker15

        RSEG BANKED_CODE:CODE:NOROOT(0)
?Subroutine15:
        CFI Block cfiCond16 Using cfiCommon0
        CFI NoFunction
        CFI Conditional ??CrossCallReturnLabel_24
        CFI R6 load(1, XDATA, add(CFA_XSP16, literal(-12)))
        CFI VB load(1, XDATA, add(CFA_XSP16, literal(-11)))
        CFI V0 load(1, XDATA, add(CFA_XSP16, literal(-10)))
        CFI V1 load(1, XDATA, add(CFA_XSP16, literal(-9)))
        CFI V2 load(1, XDATA, add(CFA_XSP16, literal(-8)))
        CFI V3 load(1, XDATA, add(CFA_XSP16, literal(-7)))
        CFI R7 load(1, XDATA, add(CFA_XSP16, literal(-6)))
        CFI ?RET_LOW load(1, XDATA, add(CFA_XSP16, literal(-5)))
        CFI ?RET_HIGH load(1, XDATA, add(CFA_XSP16, literal(-4)))
        CFI ?BRET_EXT load(1, XDATA, add(CFA_XSP16, literal(-3)))
        CFI DPL0 load(1, XDATA, add(CFA_XSP16, literal(-2)))
        CFI DPH0 load(1, XDATA, add(CFA_XSP16, literal(-1)))
        CFI CFA_SP SP+0
        CFI CFA_XSP16 add(XSP16, 12)
        CFI Block cfiCond17 Using cfiCommon0
        CFI (cfiCond17) NoFunction
        CFI (cfiCond17) Conditional ??CrossCallReturnLabel_25, ??CrossCallReturnLabel_20
        CFI (cfiCond17) R6 load(1, XDATA, add(CFA_XSP16, literal(-12)))
        CFI (cfiCond17) VB load(1, XDATA, add(CFA_XSP16, literal(-11)))
        CFI (cfiCond17) V0 load(1, XDATA, add(CFA_XSP16, literal(-10)))
        CFI (cfiCond17) V1 load(1, XDATA, add(CFA_XSP16, literal(-9)))
        CFI (cfiCond17) V2 load(1, XDATA, add(CFA_XSP16, literal(-8)))
        CFI (cfiCond17) V3 load(1, XDATA, add(CFA_XSP16, literal(-7)))
        CFI (cfiCond17) R7 load(1, XDATA, add(CFA_XSP16, literal(-6)))
        CFI (cfiCond17) ?RET_LOW load(1, XDATA, add(CFA_XSP16, literal(-5)))
        CFI (cfiCond17) ?RET_HIGH load(1, XDATA, add(CFA_XSP16, literal(-4)))
        CFI (cfiCond17) ?BRET_EXT load(1, XDATA, add(CFA_XSP16, literal(-3)))
        CFI (cfiCond17) DPL0 load(1, XDATA, add(CFA_XSP16, literal(-2)))
        CFI (cfiCond17) DPH0 load(1, XDATA, add(CFA_XSP16, literal(-1)))
        CFI (cfiCond17) CFA_SP SP+0
        CFI (cfiCond17) CFA_XSP16 add(XSP16, 12)
        CFI Block cfiCond18 Using cfiCommon0
        CFI (cfiCond18) NoFunction
        CFI (cfiCond18) Conditional ??CrossCallReturnLabel_25, ??CrossCallReturnLabel_21
        CFI (cfiCond18) R6 load(1, XDATA, add(CFA_XSP16, literal(-12)))
        CFI (cfiCond18) VB load(1, XDATA, add(CFA_XSP16, literal(-11)))
        CFI (cfiCond18) V0 load(1, XDATA, add(CFA_XSP16, literal(-10)))
        CFI (cfiCond18) V1 load(1, XDATA, add(CFA_XSP16, literal(-9)))
        CFI (cfiCond18) V2 load(1, XDATA, add(CFA_XSP16, literal(-8)))
        CFI (cfiCond18) V3 load(1, XDATA, add(CFA_XSP16, literal(-7)))
        CFI (cfiCond18) R7 load(1, XDATA, add(CFA_XSP16, literal(-6)))
        CFI (cfiCond18) ?RET_LOW load(1, XDATA, add(CFA_XSP16, literal(-5)))
        CFI (cfiCond18) ?RET_HIGH load(1, XDATA, add(CFA_XSP16, literal(-4)))
        CFI (cfiCond18) ?BRET_EXT load(1, XDATA, add(CFA_XSP16, literal(-3)))
        CFI (cfiCond18) DPL0 load(1, XDATA, add(CFA_XSP16, literal(-2)))
        CFI (cfiCond18) DPH0 load(1, XDATA, add(CFA_XSP16, literal(-1)))
        CFI (cfiCond18) CFA_SP SP+0
        CFI (cfiCond18) CFA_XSP16 add(XSP16, 12)
        CFI Block cfiPicker19 Using cfiCommon1
        CFI (cfiPicker19) NoFunction
        CFI (cfiPicker19) Picker
        ADD     A,#0x30
        MOV     DPL,R2
        MOV     DPH,R3
        INC     DPTR
        INC     DPTR
        RET
        CFI EndBlock cfiCond16
        CFI EndBlock cfiCond17
        CFI EndBlock cfiCond18
        CFI EndBlock cfiPicker19
//  727 
//  728 /*********************************************************************
//  729  * @fn      TransmitApp_SendTheMessage
//  730  *
//  731  * @brief   Send "the" message.
//  732  *
//  733  * @param   none
//  734  *
//  735  * @return  none
//  736  */
//  737 void TransmitApp_SendTheMessage( void )
//  738 {
//  739   uint16 len;
//  740   uint8 tmp;
//  741 
//  742 
//  743   do {
//  744 //    // put the sequence number in the message
//  745 //    tmp = HI_UINT8( TransmitApp_TransID );
//  746 //    tmp += (tmp <= 9) ? ('0') : ('A' - 0x0A);
//  747 //    TransmitApp_Msg[2] = tmp;
//  748 //    tmp = LO_UINT8( TransmitApp_TransID );
//  749 //    tmp += (tmp <= 9) ? ('0') : ('A' - 0x0A);
//  750 //    TransmitApp_Msg[3] = tmp;
//  751 //  
//  752 //    len = TransmitApp_MaxDataLength;
//  753 //  
//  754 //#if defined ( TRANSMITAPP_RANDOM_LEN )
//  755 //    len = (uint8)(osal_rand() & 0x7F);
//  756 //    if( len > TransmitApp_MaxDataLength || len == 0 )
//  757 //      len = TransmitApp_MaxDataLength;
//  758 //    else if ( len < 4 )
//  759 //      len = 4;
//  760 //#endif
//  761 //
//  762     //ÈËÌå P1.3   ---pan
//  763     P1DIR &= ~ 0x08;
//  764     if(P1_3)
//  765     {
//  766       TransmitApp_Msg[0] = 1;
//  767     }
//  768     else
//  769     {TransmitApp_Msg[0] = 0;
//  770     }
//  771     
//  772       //ÎÂ¶È
//  773       TransmitApp_Msg[1] = 20;
//  774 
//  775      //Êª¶È
//  776       TransmitApp_Msg[2] = 35;
//  777       
//  778       //¿ÉÈ¼
//  779       TransmitApp_Msg[3] = 10;
//  780       
//  781       //µÆ¹â
//  782       P0DIR &= ~ 0x40;
//  783       if(light)
//  784       {TransmitApp_Msg[4] = 100;   
//  785       }
//  786       else
//  787       {
//  788         TransmitApp_Msg[4] = 0;
//  789       }
//  790       
//  791       //±¨¾¯
//  792       if(alarm)
//  793       {TransmitApp_Msg[5] = 1;   
//  794       }
//  795       else
//  796       {
//  797         TransmitApp_Msg[5] = 0;
//  798       }      
//  799       
//  800       len =6;
//  801     
//  802     tmp = AF_DataRequest( &TransmitApp_DstAddr, &TransmitApp_epDesc,
//  803                            TRANSMITAPP_CLUSTERID_TESTMSG,
//  804                            len, TransmitApp_Msg,
//  805                           &TransmitApp_TransID,
//  806                            TRANSMITAPP_TX_OPTIONS,
//  807                            AF_DEFAULT_RADIUS );
//  808     
//  809    //uart_sent("sent AF_DataRequest --- ",0);
//  810     
//  811 //#if defined ( TRANSMITAPP_RANDOM_LEN )
//  812 //    if ( tmp == afStatus_SUCCESS )
//  813 //    {
//  814 //      txAccum += len;
//  815 //    }
//  816 //#endif
//  817 //
//  818     if ( timesToSend )
//  819     {
//  820       timesToSend--;
//  821     }
//  822   } while ( (timesToSend != 0) && (afStatus_SUCCESS == tmp) );
//  823 
//  824   if ( afStatus_SUCCESS == tmp )
//  825   {
//  826     pktCounter++;
//  827     uart_sent("Sucess !\n",0);
//  828   }
//  829   else
//  830   { uart_sent("sent Error, so wait (10 mSec) and try again.\n",0);
//  831     // Error, so wait (10 mSec) and try again.
//  832     osal_start_timerEx( TransmitApp_TaskID, TRANSMITAPP_SEND_ERR_EVT, 500 );
//  833   }
//  834 }
//  835 
//  836 /*********************************************************************
//  837  * @fn      TransmitApp_ChangeState
//  838  *
//  839  * @brief   Toggle the Sending/Waiting state flag
//  840  *
//  841  * @param   none
//  842  *
//  843  * @return  none
//  844  */
//  845 void TransmitApp_ChangeState( void )
//  846 {
//  847   if ( TransmitApp_State == TRANSMITAPP_STATE_WAITING )
//  848   {
//  849     TransmitApp_State = TRANSMITAPP_STATE_SENDING;
//  850     TransmitApp_SetSendEvt();
//  851     timesToSend = TRANSMITAPP_INITIAL_MSG_COUNT;
//  852   }
//  853   else
//  854   {
//  855     TransmitApp_State = TRANSMITAPP_STATE_WAITING;
//  856   }
//  857 }
//  858 
//  859 /*********************************************************************
//  860  * @fn      TransmitApp_SetSendEvt
//  861  *
//  862  * @brief   Set the event flag
//  863  *
//  864  * @param   none
//  865  *
//  866  * @return  none
//  867  */
//  868 void TransmitApp_SetSendEvt( void )
//  869 {
//  870 #if defined( TRANSMITAPP_DELAY_SEND )
//  871   // Adds a delay to sending the data
//  872   osal_start_timerEx( TransmitApp_TaskID,
//  873                     TRANSMITAPP_SEND_MSG_EVT, TRANSMITAPP_SEND_DELAY );
//  874 #else
//  875   // No Delay - just send the data
//  876   osal_set_event( TransmitApp_TaskID, TRANSMITAPP_SEND_MSG_EVT );
//  877 #endif
//  878 }
//  879 
//  880 void uart_sent( uint8 * msg ,uint8 len)
//  881 {   
//  882     if (len == 0)
//  883     {len = (uint8)osal_strlen( (char*)msg );
//  884     }
//  885     
//  886 //    uint8 *buf;
//  887 //    buf = osal_mem_alloc( len );
//  888 //    if(buf)
//  889 //    {
//  890 //      buf = osal_mem_alloc( len );
//  891 //      osal_memcpy( buf, msg , len );
//  892 //      HalUARTWrite(ZTOOL_PORT, buf, len);
//  893 //      /* Free mem */
//  894 //      osal_mem_free( buf );
//  895 //    }
//  896     HalUARTWrite(ZTOOL_PORT, msg, len);
//  897 }
//  898 
//  899 /*********************************************************************
//  900  * @fn      TransmitApp_DisplayResults
//  901  *
//  902  * @brief   Display the results and clear the accumulators
//  903  *
//  904  * @param   none
//  905  *
//  906  * @return  none
//  907  */

        RSEG BANKED_CODE:CODE:NOROOT(0)
?Subroutine11:
        CFI Block cfiCond20 Using cfiCommon0
        CFI NoFunction
        CFI Conditional ??CrossCallReturnLabel_33
        CFI R6 load(1, XDATA, add(CFA_XSP16, literal(-24)))
        CFI VB load(1, XDATA, add(CFA_XSP16, literal(-23)))
        CFI V0 load(1, XDATA, add(CFA_XSP16, literal(-22)))
        CFI V1 load(1, XDATA, add(CFA_XSP16, literal(-21)))
        CFI V2 load(1, XDATA, add(CFA_XSP16, literal(-20)))
        CFI V3 load(1, XDATA, add(CFA_XSP16, literal(-19)))
        CFI V4 load(1, XDATA, add(CFA_XSP16, literal(-18)))
        CFI V5 load(1, XDATA, add(CFA_XSP16, literal(-17)))
        CFI V6 load(1, XDATA, add(CFA_XSP16, literal(-16)))
        CFI V7 load(1, XDATA, add(CFA_XSP16, literal(-15)))
        CFI V8 load(1, XDATA, add(CFA_XSP16, literal(-14)))
        CFI V9 load(1, XDATA, add(CFA_XSP16, literal(-13)))
        CFI V10 load(1, XDATA, add(CFA_XSP16, literal(-12)))
        CFI V11 load(1, XDATA, add(CFA_XSP16, literal(-11)))
        CFI V12 load(1, XDATA, add(CFA_XSP16, literal(-10)))
        CFI V13 load(1, XDATA, add(CFA_XSP16, literal(-9)))
        CFI V14 load(1, XDATA, add(CFA_XSP16, literal(-8)))
        CFI V15 load(1, XDATA, add(CFA_XSP16, literal(-7)))
        CFI R7 load(1, XDATA, add(CFA_XSP16, literal(-6)))
        CFI ?RET_LOW load(1, XDATA, add(CFA_XSP16, literal(-5)))
        CFI ?RET_HIGH load(1, XDATA, add(CFA_XSP16, literal(-4)))
        CFI ?BRET_EXT load(1, XDATA, add(CFA_XSP16, literal(-3)))
        CFI DPL0 load(1, XDATA, add(CFA_XSP16, literal(-2)))
        CFI DPH0 load(1, XDATA, add(CFA_XSP16, literal(-1)))
        CFI CFA_SP SP+-1
        CFI CFA_XSP16 add(XSP16, 45)
        CFI Block cfiCond21 Using cfiCommon0
        CFI (cfiCond21) NoFunction
        CFI (cfiCond21) Conditional ??CrossCallReturnLabel_34
        CFI (cfiCond21) R6 load(1, XDATA, add(CFA_XSP16, literal(-24)))
        CFI (cfiCond21) VB load(1, XDATA, add(CFA_XSP16, literal(-23)))
        CFI (cfiCond21) V0 load(1, XDATA, add(CFA_XSP16, literal(-22)))
        CFI (cfiCond21) V1 load(1, XDATA, add(CFA_XSP16, literal(-21)))
        CFI (cfiCond21) V2 load(1, XDATA, add(CFA_XSP16, literal(-20)))
        CFI (cfiCond21) V3 load(1, XDATA, add(CFA_XSP16, literal(-19)))
        CFI (cfiCond21) V4 load(1, XDATA, add(CFA_XSP16, literal(-18)))
        CFI (cfiCond21) V5 load(1, XDATA, add(CFA_XSP16, literal(-17)))
        CFI (cfiCond21) V6 load(1, XDATA, add(CFA_XSP16, literal(-16)))
        CFI (cfiCond21) V7 load(1, XDATA, add(CFA_XSP16, literal(-15)))
        CFI (cfiCond21) V8 load(1, XDATA, add(CFA_XSP16, literal(-14)))
        CFI (cfiCond21) V9 load(1, XDATA, add(CFA_XSP16, literal(-13)))
        CFI (cfiCond21) V10 load(1, XDATA, add(CFA_XSP16, literal(-12)))
        CFI (cfiCond21) V11 load(1, XDATA, add(CFA_XSP16, literal(-11)))
        CFI (cfiCond21) V12 load(1, XDATA, add(CFA_XSP16, literal(-10)))
        CFI (cfiCond21) V13 load(1, XDATA, add(CFA_XSP16, literal(-9)))
        CFI (cfiCond21) V14 load(1, XDATA, add(CFA_XSP16, literal(-8)))
        CFI (cfiCond21) V15 load(1, XDATA, add(CFA_XSP16, literal(-7)))
        CFI (cfiCond21) R7 load(1, XDATA, add(CFA_XSP16, literal(-6)))
        CFI (cfiCond21) ?RET_LOW load(1, XDATA, add(CFA_XSP16, literal(-5)))
        CFI (cfiCond21) ?RET_HIGH load(1, XDATA, add(CFA_XSP16, literal(-4)))
        CFI (cfiCond21) ?BRET_EXT load(1, XDATA, add(CFA_XSP16, literal(-3)))
        CFI (cfiCond21) DPL0 load(1, XDATA, add(CFA_XSP16, literal(-2)))
        CFI (cfiCond21) DPH0 load(1, XDATA, add(CFA_XSP16, literal(-1)))
        CFI (cfiCond21) CFA_SP SP+-1
        CFI (cfiCond21) CFA_XSP16 add(XSP16, 45)
        CFI Block cfiCond22 Using cfiCommon0
        CFI (cfiCond22) NoFunction
        CFI (cfiCond22) Conditional ??CrossCallReturnLabel_35
        CFI (cfiCond22) R6 load(1, XDATA, add(CFA_XSP16, literal(-24)))
        CFI (cfiCond22) VB load(1, XDATA, add(CFA_XSP16, literal(-23)))
        CFI (cfiCond22) V0 load(1, XDATA, add(CFA_XSP16, literal(-22)))
        CFI (cfiCond22) V1 load(1, XDATA, add(CFA_XSP16, literal(-21)))
        CFI (cfiCond22) V2 load(1, XDATA, add(CFA_XSP16, literal(-20)))
        CFI (cfiCond22) V3 load(1, XDATA, add(CFA_XSP16, literal(-19)))
        CFI (cfiCond22) V4 load(1, XDATA, add(CFA_XSP16, literal(-18)))
        CFI (cfiCond22) V5 load(1, XDATA, add(CFA_XSP16, literal(-17)))
        CFI (cfiCond22) V6 load(1, XDATA, add(CFA_XSP16, literal(-16)))
        CFI (cfiCond22) V7 load(1, XDATA, add(CFA_XSP16, literal(-15)))
        CFI (cfiCond22) V8 load(1, XDATA, add(CFA_XSP16, literal(-14)))
        CFI (cfiCond22) V9 load(1, XDATA, add(CFA_XSP16, literal(-13)))
        CFI (cfiCond22) V10 load(1, XDATA, add(CFA_XSP16, literal(-12)))
        CFI (cfiCond22) V11 load(1, XDATA, add(CFA_XSP16, literal(-11)))
        CFI (cfiCond22) V12 load(1, XDATA, add(CFA_XSP16, literal(-10)))
        CFI (cfiCond22) V13 load(1, XDATA, add(CFA_XSP16, literal(-9)))
        CFI (cfiCond22) V14 load(1, XDATA, add(CFA_XSP16, literal(-8)))
        CFI (cfiCond22) V15 load(1, XDATA, add(CFA_XSP16, literal(-7)))
        CFI (cfiCond22) R7 load(1, XDATA, add(CFA_XSP16, literal(-6)))
        CFI (cfiCond22) ?RET_LOW load(1, XDATA, add(CFA_XSP16, literal(-5)))
        CFI (cfiCond22) ?RET_HIGH load(1, XDATA, add(CFA_XSP16, literal(-4)))
        CFI (cfiCond22) ?BRET_EXT load(1, XDATA, add(CFA_XSP16, literal(-3)))
        CFI (cfiCond22) DPL0 load(1, XDATA, add(CFA_XSP16, literal(-2)))
        CFI (cfiCond22) DPH0 load(1, XDATA, add(CFA_XSP16, literal(-1)))
        CFI (cfiCond22) CFA_SP SP+-1
        CFI (cfiCond22) CFA_XSP16 add(XSP16, 45)
        CFI Block cfiCond23 Using cfiCommon0
        CFI (cfiCond23) NoFunction
        CFI (cfiCond23) Conditional ??CrossCallReturnLabel_36
        CFI (cfiCond23) R6 load(1, XDATA, add(CFA_XSP16, literal(-24)))
        CFI (cfiCond23) VB load(1, XDATA, add(CFA_XSP16, literal(-23)))
        CFI (cfiCond23) V0 load(1, XDATA, add(CFA_XSP16, literal(-22)))
        CFI (cfiCond23) V1 load(1, XDATA, add(CFA_XSP16, literal(-21)))
        CFI (cfiCond23) V2 load(1, XDATA, add(CFA_XSP16, literal(-20)))
        CFI (cfiCond23) V3 load(1, XDATA, add(CFA_XSP16, literal(-19)))
        CFI (cfiCond23) V4 load(1, XDATA, add(CFA_XSP16, literal(-18)))
        CFI (cfiCond23) V5 load(1, XDATA, add(CFA_XSP16, literal(-17)))
        CFI (cfiCond23) V6 load(1, XDATA, add(CFA_XSP16, literal(-16)))
        CFI (cfiCond23) V7 load(1, XDATA, add(CFA_XSP16, literal(-15)))
        CFI (cfiCond23) V8 load(1, XDATA, add(CFA_XSP16, literal(-14)))
        CFI (cfiCond23) V9 load(1, XDATA, add(CFA_XSP16, literal(-13)))
        CFI (cfiCond23) V10 load(1, XDATA, add(CFA_XSP16, literal(-12)))
        CFI (cfiCond23) V11 load(1, XDATA, add(CFA_XSP16, literal(-11)))
        CFI (cfiCond23) V12 load(1, XDATA, add(CFA_XSP16, literal(-10)))
        CFI (cfiCond23) V13 load(1, XDATA, add(CFA_XSP16, literal(-9)))
        CFI (cfiCond23) V14 load(1, XDATA, add(CFA_XSP16, literal(-8)))
        CFI (cfiCond23) V15 load(1, XDATA, add(CFA_XSP16, literal(-7)))
        CFI (cfiCond23) R7 load(1, XDATA, add(CFA_XSP16, literal(-6)))
        CFI (cfiCond23) ?RET_LOW load(1, XDATA, add(CFA_XSP16, literal(-5)))
        CFI (cfiCond23) ?RET_HIGH load(1, XDATA, add(CFA_XSP16, literal(-4)))
        CFI (cfiCond23) ?BRET_EXT load(1, XDATA, add(CFA_XSP16, literal(-3)))
        CFI (cfiCond23) DPL0 load(1, XDATA, add(CFA_XSP16, literal(-2)))
        CFI (cfiCond23) DPH0 load(1, XDATA, add(CFA_XSP16, literal(-1)))
        CFI (cfiCond23) CFA_SP SP+-1
        CFI (cfiCond23) CFA_XSP16 add(XSP16, 45)
        CFI Block cfiPicker24 Using cfiCommon1
        CFI (cfiPicker24) NoFunction
        CFI (cfiPicker24) Picker
        MOV     A,DPL
        ADD     A,?V0 + 0
        MOV     DPL,A
        MOV     A,DPH
        CFI EndBlock cfiCond20
        CFI EndBlock cfiCond21
        CFI EndBlock cfiCond22
        CFI EndBlock cfiCond23
        CFI EndBlock cfiPicker24
        REQUIRE ??Subroutine16_0
        ; // Fall through to label ??Subroutine16_0

        RSEG BANKED_CODE:CODE:NOROOT(0)
??Subroutine16_0:
        CFI Block cfiCond25 Using cfiCommon0
        CFI NoFunction
        CFI Conditional ??CrossCallReturnLabel_26
        CFI R6 load(1, XDATA, add(CFA_XSP16, literal(-10)))
        CFI VB load(1, XDATA, add(CFA_XSP16, literal(-9)))
        CFI V0 load(1, XDATA, add(CFA_XSP16, literal(-8)))
        CFI V1 load(1, XDATA, add(CFA_XSP16, literal(-7)))
        CFI R7 load(1, XDATA, add(CFA_XSP16, literal(-6)))
        CFI ?RET_LOW load(1, XDATA, add(CFA_XSP16, literal(-5)))
        CFI ?RET_HIGH load(1, XDATA, add(CFA_XSP16, literal(-4)))
        CFI ?BRET_EXT load(1, XDATA, add(CFA_XSP16, literal(-3)))
        CFI DPL0 load(1, XDATA, add(CFA_XSP16, literal(-2)))
        CFI DPH0 load(1, XDATA, add(CFA_XSP16, literal(-1)))
        CFI CFA_SP SP+0
        CFI CFA_XSP16 add(XSP16, 10)
        CFI Block cfiCond26 Using cfiCommon0
        CFI (cfiCond26) NoFunction
        CFI (cfiCond26) Conditional ??CrossCallReturnLabel_27
        CFI (cfiCond26) R6 load(1, XDATA, add(CFA_XSP16, literal(-12)))
        CFI (cfiCond26) VB load(1, XDATA, add(CFA_XSP16, literal(-11)))
        CFI (cfiCond26) V0 load(1, XDATA, add(CFA_XSP16, literal(-10)))
        CFI (cfiCond26) V1 load(1, XDATA, add(CFA_XSP16, literal(-9)))
        CFI (cfiCond26) V2 load(1, XDATA, add(CFA_XSP16, literal(-8)))
        CFI (cfiCond26) V3 load(1, XDATA, add(CFA_XSP16, literal(-7)))
        CFI (cfiCond26) R7 load(1, XDATA, add(CFA_XSP16, literal(-6)))
        CFI (cfiCond26) ?RET_LOW load(1, XDATA, add(CFA_XSP16, literal(-5)))
        CFI (cfiCond26) ?RET_HIGH load(1, XDATA, add(CFA_XSP16, literal(-4)))
        CFI (cfiCond26) ?BRET_EXT load(1, XDATA, add(CFA_XSP16, literal(-3)))
        CFI (cfiCond26) DPL0 load(1, XDATA, add(CFA_XSP16, literal(-2)))
        CFI (cfiCond26) DPH0 load(1, XDATA, add(CFA_XSP16, literal(-1)))
        CFI (cfiCond26) CFA_SP SP+0
        CFI (cfiCond26) CFA_XSP16 add(XSP16, 12)
        CFI Block cfiCond27 Using cfiCommon0
        CFI (cfiCond27) NoFunction
        CFI (cfiCond27) Conditional ??CrossCallReturnLabel_28
        CFI (cfiCond27) R6 load(1, XDATA, add(CFA_XSP16, literal(-12)))
        CFI (cfiCond27) VB load(1, XDATA, add(CFA_XSP16, literal(-11)))
        CFI (cfiCond27) V0 load(1, XDATA, add(CFA_XSP16, literal(-10)))
        CFI (cfiCond27) V1 load(1, XDATA, add(CFA_XSP16, literal(-9)))
        CFI (cfiCond27) V2 load(1, XDATA, add(CFA_XSP16, literal(-8)))
        CFI (cfiCond27) V3 load(1, XDATA, add(CFA_XSP16, literal(-7)))
        CFI (cfiCond27) R7 load(1, XDATA, add(CFA_XSP16, literal(-6)))
        CFI (cfiCond27) ?RET_LOW load(1, XDATA, add(CFA_XSP16, literal(-5)))
        CFI (cfiCond27) ?RET_HIGH load(1, XDATA, add(CFA_XSP16, literal(-4)))
        CFI (cfiCond27) ?BRET_EXT load(1, XDATA, add(CFA_XSP16, literal(-3)))
        CFI (cfiCond27) DPL0 load(1, XDATA, add(CFA_XSP16, literal(-2)))
        CFI (cfiCond27) DPH0 load(1, XDATA, add(CFA_XSP16, literal(-1)))
        CFI (cfiCond27) CFA_SP SP+0
        CFI (cfiCond27) CFA_XSP16 add(XSP16, 12)
        CFI Block cfiCond28 Using cfiCommon0
        CFI (cfiCond28) NoFunction
        CFI (cfiCond28) Conditional ??CrossCallReturnLabel_29
        CFI (cfiCond28) R6 load(1, XDATA, add(CFA_XSP16, literal(-12)))
        CFI (cfiCond28) VB load(1, XDATA, add(CFA_XSP16, literal(-11)))
        CFI (cfiCond28) V0 load(1, XDATA, add(CFA_XSP16, literal(-10)))
        CFI (cfiCond28) V1 load(1, XDATA, add(CFA_XSP16, literal(-9)))
        CFI (cfiCond28) V2 load(1, XDATA, add(CFA_XSP16, literal(-8)))
        CFI (cfiCond28) V3 load(1, XDATA, add(CFA_XSP16, literal(-7)))
        CFI (cfiCond28) R7 load(1, XDATA, add(CFA_XSP16, literal(-6)))
        CFI (cfiCond28) ?RET_LOW load(1, XDATA, add(CFA_XSP16, literal(-5)))
        CFI (cfiCond28) ?RET_HIGH load(1, XDATA, add(CFA_XSP16, literal(-4)))
        CFI (cfiCond28) ?BRET_EXT load(1, XDATA, add(CFA_XSP16, literal(-3)))
        CFI (cfiCond28) DPL0 load(1, XDATA, add(CFA_XSP16, literal(-2)))
        CFI (cfiCond28) DPH0 load(1, XDATA, add(CFA_XSP16, literal(-1)))
        CFI (cfiCond28) CFA_SP SP+0
        CFI (cfiCond28) CFA_XSP16 add(XSP16, 12)
        CFI Block cfiCond29 Using cfiCommon0
        CFI (cfiCond29) NoFunction
        CFI (cfiCond29) Conditional ??CrossCallReturnLabel_30
        CFI (cfiCond29) R6 load(1, XDATA, add(CFA_XSP16, literal(-12)))
        CFI (cfiCond29) VB load(1, XDATA, add(CFA_XSP16, literal(-11)))
        CFI (cfiCond29) V0 load(1, XDATA, add(CFA_XSP16, literal(-10)))
        CFI (cfiCond29) V1 load(1, XDATA, add(CFA_XSP16, literal(-9)))
        CFI (cfiCond29) V2 load(1, XDATA, add(CFA_XSP16, literal(-8)))
        CFI (cfiCond29) V3 load(1, XDATA, add(CFA_XSP16, literal(-7)))
        CFI (cfiCond29) R7 load(1, XDATA, add(CFA_XSP16, literal(-6)))
        CFI (cfiCond29) ?RET_LOW load(1, XDATA, add(CFA_XSP16, literal(-5)))
        CFI (cfiCond29) ?RET_HIGH load(1, XDATA, add(CFA_XSP16, literal(-4)))
        CFI (cfiCond29) ?BRET_EXT load(1, XDATA, add(CFA_XSP16, literal(-3)))
        CFI (cfiCond29) DPL0 load(1, XDATA, add(CFA_XSP16, literal(-2)))
        CFI (cfiCond29) DPH0 load(1, XDATA, add(CFA_XSP16, literal(-1)))
        CFI (cfiCond29) CFA_SP SP+0
        CFI (cfiCond29) CFA_XSP16 add(XSP16, 12)
        CFI Block cfiCond30 Using cfiCommon0
        CFI (cfiCond30) NoFunction
        CFI (cfiCond30) Conditional ??CrossCallReturnLabel_31
        CFI (cfiCond30) R6 load(1, XDATA, add(CFA_XSP16, literal(-12)))
        CFI (cfiCond30) VB load(1, XDATA, add(CFA_XSP16, literal(-11)))
        CFI (cfiCond30) V0 load(1, XDATA, add(CFA_XSP16, literal(-10)))
        CFI (cfiCond30) V1 load(1, XDATA, add(CFA_XSP16, literal(-9)))
        CFI (cfiCond30) V2 load(1, XDATA, add(CFA_XSP16, literal(-8)))
        CFI (cfiCond30) V3 load(1, XDATA, add(CFA_XSP16, literal(-7)))
        CFI (cfiCond30) R7 load(1, XDATA, add(CFA_XSP16, literal(-6)))
        CFI (cfiCond30) ?RET_LOW load(1, XDATA, add(CFA_XSP16, literal(-5)))
        CFI (cfiCond30) ?RET_HIGH load(1, XDATA, add(CFA_XSP16, literal(-4)))
        CFI (cfiCond30) ?BRET_EXT load(1, XDATA, add(CFA_XSP16, literal(-3)))
        CFI (cfiCond30) DPL0 load(1, XDATA, add(CFA_XSP16, literal(-2)))
        CFI (cfiCond30) DPH0 load(1, XDATA, add(CFA_XSP16, literal(-1)))
        CFI (cfiCond30) CFA_SP SP+0
        CFI (cfiCond30) CFA_XSP16 add(XSP16, 12)
        CFI Block cfiCond31 Using cfiCommon0
        CFI (cfiCond31) NoFunction
        CFI (cfiCond31) Conditional ??CrossCallReturnLabel_32
        CFI (cfiCond31) R6 load(1, XDATA, add(CFA_XSP16, literal(-12)))
        CFI (cfiCond31) VB load(1, XDATA, add(CFA_XSP16, literal(-11)))
        CFI (cfiCond31) V0 load(1, XDATA, add(CFA_XSP16, literal(-10)))
        CFI (cfiCond31) V1 load(1, XDATA, add(CFA_XSP16, literal(-9)))
        CFI (cfiCond31) V2 load(1, XDATA, add(CFA_XSP16, literal(-8)))
        CFI (cfiCond31) V3 load(1, XDATA, add(CFA_XSP16, literal(-7)))
        CFI (cfiCond31) R7 load(1, XDATA, add(CFA_XSP16, literal(-6)))
        CFI (cfiCond31) ?RET_LOW load(1, XDATA, add(CFA_XSP16, literal(-5)))
        CFI (cfiCond31) ?RET_HIGH load(1, XDATA, add(CFA_XSP16, literal(-4)))
        CFI (cfiCond31) ?BRET_EXT load(1, XDATA, add(CFA_XSP16, literal(-3)))
        CFI (cfiCond31) DPL0 load(1, XDATA, add(CFA_XSP16, literal(-2)))
        CFI (cfiCond31) DPH0 load(1, XDATA, add(CFA_XSP16, literal(-1)))
        CFI (cfiCond31) CFA_SP SP+0
        CFI (cfiCond31) CFA_XSP16 add(XSP16, 12)
        CFI Block cfiCond32 Using cfiCommon0
        CFI (cfiCond32) NoFunction
        CFI (cfiCond32) Conditional ??CrossCallReturnLabel_33
        CFI (cfiCond32) R6 load(1, XDATA, add(CFA_XSP16, literal(-24)))
        CFI (cfiCond32) VB load(1, XDATA, add(CFA_XSP16, literal(-23)))
        CFI (cfiCond32) V0 load(1, XDATA, add(CFA_XSP16, literal(-22)))
        CFI (cfiCond32) V1 load(1, XDATA, add(CFA_XSP16, literal(-21)))
        CFI (cfiCond32) V2 load(1, XDATA, add(CFA_XSP16, literal(-20)))
        CFI (cfiCond32) V3 load(1, XDATA, add(CFA_XSP16, literal(-19)))
        CFI (cfiCond32) V4 load(1, XDATA, add(CFA_XSP16, literal(-18)))
        CFI (cfiCond32) V5 load(1, XDATA, add(CFA_XSP16, literal(-17)))
        CFI (cfiCond32) V6 load(1, XDATA, add(CFA_XSP16, literal(-16)))
        CFI (cfiCond32) V7 load(1, XDATA, add(CFA_XSP16, literal(-15)))
        CFI (cfiCond32) V8 load(1, XDATA, add(CFA_XSP16, literal(-14)))
        CFI (cfiCond32) V9 load(1, XDATA, add(CFA_XSP16, literal(-13)))
        CFI (cfiCond32) V10 load(1, XDATA, add(CFA_XSP16, literal(-12)))
        CFI (cfiCond32) V11 load(1, XDATA, add(CFA_XSP16, literal(-11)))
        CFI (cfiCond32) V12 load(1, XDATA, add(CFA_XSP16, literal(-10)))
        CFI (cfiCond32) V13 load(1, XDATA, add(CFA_XSP16, literal(-9)))
        CFI (cfiCond32) V14 load(1, XDATA, add(CFA_XSP16, literal(-8)))
        CFI (cfiCond32) V15 load(1, XDATA, add(CFA_XSP16, literal(-7)))
        CFI (cfiCond32) R7 load(1, XDATA, add(CFA_XSP16, literal(-6)))
        CFI (cfiCond32) ?RET_LOW load(1, XDATA, add(CFA_XSP16, literal(-5)))
        CFI (cfiCond32) ?RET_HIGH load(1, XDATA, add(CFA_XSP16, literal(-4)))
        CFI (cfiCond32) ?BRET_EXT load(1, XDATA, add(CFA_XSP16, literal(-3)))
        CFI (cfiCond32) DPL0 load(1, XDATA, add(CFA_XSP16, literal(-2)))
        CFI (cfiCond32) DPH0 load(1, XDATA, add(CFA_XSP16, literal(-1)))
        CFI (cfiCond32) CFA_SP SP+-1
        CFI (cfiCond32) CFA_XSP16 add(XSP16, 45)
        CFI Block cfiCond33 Using cfiCommon0
        CFI (cfiCond33) NoFunction
        CFI (cfiCond33) Conditional ??CrossCallReturnLabel_34
        CFI (cfiCond33) R6 load(1, XDATA, add(CFA_XSP16, literal(-24)))
        CFI (cfiCond33) VB load(1, XDATA, add(CFA_XSP16, literal(-23)))
        CFI (cfiCond33) V0 load(1, XDATA, add(CFA_XSP16, literal(-22)))
        CFI (cfiCond33) V1 load(1, XDATA, add(CFA_XSP16, literal(-21)))
        CFI (cfiCond33) V2 load(1, XDATA, add(CFA_XSP16, literal(-20)))
        CFI (cfiCond33) V3 load(1, XDATA, add(CFA_XSP16, literal(-19)))
        CFI (cfiCond33) V4 load(1, XDATA, add(CFA_XSP16, literal(-18)))
        CFI (cfiCond33) V5 load(1, XDATA, add(CFA_XSP16, literal(-17)))
        CFI (cfiCond33) V6 load(1, XDATA, add(CFA_XSP16, literal(-16)))
        CFI (cfiCond33) V7 load(1, XDATA, add(CFA_XSP16, literal(-15)))
        CFI (cfiCond33) V8 load(1, XDATA, add(CFA_XSP16, literal(-14)))
        CFI (cfiCond33) V9 load(1, XDATA, add(CFA_XSP16, literal(-13)))
        CFI (cfiCond33) V10 load(1, XDATA, add(CFA_XSP16, literal(-12)))
        CFI (cfiCond33) V11 load(1, XDATA, add(CFA_XSP16, literal(-11)))
        CFI (cfiCond33) V12 load(1, XDATA, add(CFA_XSP16, literal(-10)))
        CFI (cfiCond33) V13 load(1, XDATA, add(CFA_XSP16, literal(-9)))
        CFI (cfiCond33) V14 load(1, XDATA, add(CFA_XSP16, literal(-8)))
        CFI (cfiCond33) V15 load(1, XDATA, add(CFA_XSP16, literal(-7)))
        CFI (cfiCond33) R7 load(1, XDATA, add(CFA_XSP16, literal(-6)))
        CFI (cfiCond33) ?RET_LOW load(1, XDATA, add(CFA_XSP16, literal(-5)))
        CFI (cfiCond33) ?RET_HIGH load(1, XDATA, add(CFA_XSP16, literal(-4)))
        CFI (cfiCond33) ?BRET_EXT load(1, XDATA, add(CFA_XSP16, literal(-3)))
        CFI (cfiCond33) DPL0 load(1, XDATA, add(CFA_XSP16, literal(-2)))
        CFI (cfiCond33) DPH0 load(1, XDATA, add(CFA_XSP16, literal(-1)))
        CFI (cfiCond33) CFA_SP SP+-1
        CFI (cfiCond33) CFA_XSP16 add(XSP16, 45)
        CFI Block cfiCond34 Using cfiCommon0
        CFI (cfiCond34) NoFunction
        CFI (cfiCond34) Conditional ??CrossCallReturnLabel_35
        CFI (cfiCond34) R6 load(1, XDATA, add(CFA_XSP16, literal(-24)))
        CFI (cfiCond34) VB load(1, XDATA, add(CFA_XSP16, literal(-23)))
        CFI (cfiCond34) V0 load(1, XDATA, add(CFA_XSP16, literal(-22)))
        CFI (cfiCond34) V1 load(1, XDATA, add(CFA_XSP16, literal(-21)))
        CFI (cfiCond34) V2 load(1, XDATA, add(CFA_XSP16, literal(-20)))
        CFI (cfiCond34) V3 load(1, XDATA, add(CFA_XSP16, literal(-19)))
        CFI (cfiCond34) V4 load(1, XDATA, add(CFA_XSP16, literal(-18)))
        CFI (cfiCond34) V5 load(1, XDATA, add(CFA_XSP16, literal(-17)))
        CFI (cfiCond34) V6 load(1, XDATA, add(CFA_XSP16, literal(-16)))
        CFI (cfiCond34) V7 load(1, XDATA, add(CFA_XSP16, literal(-15)))
        CFI (cfiCond34) V8 load(1, XDATA, add(CFA_XSP16, literal(-14)))
        CFI (cfiCond34) V9 load(1, XDATA, add(CFA_XSP16, literal(-13)))
        CFI (cfiCond34) V10 load(1, XDATA, add(CFA_XSP16, literal(-12)))
        CFI (cfiCond34) V11 load(1, XDATA, add(CFA_XSP16, literal(-11)))
        CFI (cfiCond34) V12 load(1, XDATA, add(CFA_XSP16, literal(-10)))
        CFI (cfiCond34) V13 load(1, XDATA, add(CFA_XSP16, literal(-9)))
        CFI (cfiCond34) V14 load(1, XDATA, add(CFA_XSP16, literal(-8)))
        CFI (cfiCond34) V15 load(1, XDATA, add(CFA_XSP16, literal(-7)))
        CFI (cfiCond34) R7 load(1, XDATA, add(CFA_XSP16, literal(-6)))
        CFI (cfiCond34) ?RET_LOW load(1, XDATA, add(CFA_XSP16, literal(-5)))
        CFI (cfiCond34) ?RET_HIGH load(1, XDATA, add(CFA_XSP16, literal(-4)))
        CFI (cfiCond34) ?BRET_EXT load(1, XDATA, add(CFA_XSP16, literal(-3)))
        CFI (cfiCond34) DPL0 load(1, XDATA, add(CFA_XSP16, literal(-2)))
        CFI (cfiCond34) DPH0 load(1, XDATA, add(CFA_XSP16, literal(-1)))
        CFI (cfiCond34) CFA_SP SP+-1
        CFI (cfiCond34) CFA_XSP16 add(XSP16, 45)
        CFI Block cfiCond35 Using cfiCommon0
        CFI (cfiCond35) NoFunction
        CFI (cfiCond35) Conditional ??CrossCallReturnLabel_36
        CFI (cfiCond35) R6 load(1, XDATA, add(CFA_XSP16, literal(-24)))
        CFI (cfiCond35) VB load(1, XDATA, add(CFA_XSP16, literal(-23)))
        CFI (cfiCond35) V0 load(1, XDATA, add(CFA_XSP16, literal(-22)))
        CFI (cfiCond35) V1 load(1, XDATA, add(CFA_XSP16, literal(-21)))
        CFI (cfiCond35) V2 load(1, XDATA, add(CFA_XSP16, literal(-20)))
        CFI (cfiCond35) V3 load(1, XDATA, add(CFA_XSP16, literal(-19)))
        CFI (cfiCond35) V4 load(1, XDATA, add(CFA_XSP16, literal(-18)))
        CFI (cfiCond35) V5 load(1, XDATA, add(CFA_XSP16, literal(-17)))
        CFI (cfiCond35) V6 load(1, XDATA, add(CFA_XSP16, literal(-16)))
        CFI (cfiCond35) V7 load(1, XDATA, add(CFA_XSP16, literal(-15)))
        CFI (cfiCond35) V8 load(1, XDATA, add(CFA_XSP16, literal(-14)))
        CFI (cfiCond35) V9 load(1, XDATA, add(CFA_XSP16, literal(-13)))
        CFI (cfiCond35) V10 load(1, XDATA, add(CFA_XSP16, literal(-12)))
        CFI (cfiCond35) V11 load(1, XDATA, add(CFA_XSP16, literal(-11)))
        CFI (cfiCond35) V12 load(1, XDATA, add(CFA_XSP16, literal(-10)))
        CFI (cfiCond35) V13 load(1, XDATA, add(CFA_XSP16, literal(-9)))
        CFI (cfiCond35) V14 load(1, XDATA, add(CFA_XSP16, literal(-8)))
        CFI (cfiCond35) V15 load(1, XDATA, add(CFA_XSP16, literal(-7)))
        CFI (cfiCond35) R7 load(1, XDATA, add(CFA_XSP16, literal(-6)))
        CFI (cfiCond35) ?RET_LOW load(1, XDATA, add(CFA_XSP16, literal(-5)))
        CFI (cfiCond35) ?RET_HIGH load(1, XDATA, add(CFA_XSP16, literal(-4)))
        CFI (cfiCond35) ?BRET_EXT load(1, XDATA, add(CFA_XSP16, literal(-3)))
        CFI (cfiCond35) DPL0 load(1, XDATA, add(CFA_XSP16, literal(-2)))
        CFI (cfiCond35) DPH0 load(1, XDATA, add(CFA_XSP16, literal(-1)))
        CFI (cfiCond35) CFA_SP SP+-1
        CFI (cfiCond35) CFA_XSP16 add(XSP16, 45)
        CFI Block cfiPicker36 Using cfiCommon1
        CFI (cfiPicker36) NoFunction
        CFI (cfiPicker36) Picker
        ADDC    A,#0x0
        MOV     DPH,A
        RET
        CFI EndBlock cfiCond25
        CFI EndBlock cfiCond26
        CFI EndBlock cfiCond27
        CFI EndBlock cfiCond28
        CFI EndBlock cfiCond29
        CFI EndBlock cfiCond30
        CFI EndBlock cfiCond31
        CFI EndBlock cfiCond32
        CFI EndBlock cfiCond33
        CFI EndBlock cfiCond34
        CFI EndBlock cfiCond35
        CFI EndBlock cfiPicker36

        RSEG BANKED_CODE:CODE:NOROOT(0)
?Subroutine10:
        CFI Block cfiCond37 Using cfiCommon0
        CFI NoFunction
        CFI Conditional ??CrossCallReturnLabel_16
        CFI R6 load(1, XDATA, add(CFA_XSP16, literal(-12)))
        CFI VB load(1, XDATA, add(CFA_XSP16, literal(-11)))
        CFI V0 load(1, XDATA, add(CFA_XSP16, literal(-10)))
        CFI V1 load(1, XDATA, add(CFA_XSP16, literal(-9)))
        CFI V2 load(1, XDATA, add(CFA_XSP16, literal(-8)))
        CFI V3 load(1, XDATA, add(CFA_XSP16, literal(-7)))
        CFI R7 load(1, XDATA, add(CFA_XSP16, literal(-6)))
        CFI ?RET_LOW load(1, XDATA, add(CFA_XSP16, literal(-5)))
        CFI ?RET_HIGH load(1, XDATA, add(CFA_XSP16, literal(-4)))
        CFI ?BRET_EXT load(1, XDATA, add(CFA_XSP16, literal(-3)))
        CFI DPL0 load(1, XDATA, add(CFA_XSP16, literal(-2)))
        CFI DPH0 load(1, XDATA, add(CFA_XSP16, literal(-1)))
        CFI CFA_SP SP+0
        CFI CFA_XSP16 add(XSP16, 12)
        CFI Block cfiCond38 Using cfiCommon0
        CFI (cfiCond38) NoFunction
        CFI (cfiCond38) Conditional ??CrossCallReturnLabel_17
        CFI (cfiCond38) R6 load(1, XDATA, add(CFA_XSP16, literal(-12)))
        CFI (cfiCond38) VB load(1, XDATA, add(CFA_XSP16, literal(-11)))
        CFI (cfiCond38) V0 load(1, XDATA, add(CFA_XSP16, literal(-10)))
        CFI (cfiCond38) V1 load(1, XDATA, add(CFA_XSP16, literal(-9)))
        CFI (cfiCond38) V2 load(1, XDATA, add(CFA_XSP16, literal(-8)))
        CFI (cfiCond38) V3 load(1, XDATA, add(CFA_XSP16, literal(-7)))
        CFI (cfiCond38) R7 load(1, XDATA, add(CFA_XSP16, literal(-6)))
        CFI (cfiCond38) ?RET_LOW load(1, XDATA, add(CFA_XSP16, literal(-5)))
        CFI (cfiCond38) ?RET_HIGH load(1, XDATA, add(CFA_XSP16, literal(-4)))
        CFI (cfiCond38) ?BRET_EXT load(1, XDATA, add(CFA_XSP16, literal(-3)))
        CFI (cfiCond38) DPL0 load(1, XDATA, add(CFA_XSP16, literal(-2)))
        CFI (cfiCond38) DPH0 load(1, XDATA, add(CFA_XSP16, literal(-1)))
        CFI (cfiCond38) CFA_SP SP+0
        CFI (cfiCond38) CFA_XSP16 add(XSP16, 12)
        CFI Block cfiPicker39 Using cfiCommon1
        CFI (cfiPicker39) NoFunction
        CFI (cfiPicker39) Picker
        MOV     DPL,A
        MOV     A,R7
        ADDC    A,#0x0
        MOV     DPH,A
        MOV     A,#0x44
        MOVX    @DPTR,A
        MOV     A,R6
        RET
        CFI EndBlock cfiCond37
        CFI EndBlock cfiCond38
        CFI EndBlock cfiPicker39

        RSEG BANKED_CODE:CODE:NOROOT(0)
?Subroutine8:
        CFI Block cfiCond40 Using cfiCommon0
        CFI NoFunction
        CFI Conditional ??CrossCallReturnLabel_12
        CFI R6 load(1, XDATA, add(CFA_XSP16, literal(-10)))
        CFI VB load(1, XDATA, add(CFA_XSP16, literal(-9)))
        CFI V0 load(1, XDATA, add(CFA_XSP16, literal(-8)))
        CFI V1 load(1, XDATA, add(CFA_XSP16, literal(-7)))
        CFI R7 load(1, XDATA, add(CFA_XSP16, literal(-6)))
        CFI ?RET_LOW load(1, XDATA, add(CFA_XSP16, literal(-5)))
        CFI ?RET_HIGH load(1, XDATA, add(CFA_XSP16, literal(-4)))
        CFI ?BRET_EXT load(1, XDATA, add(CFA_XSP16, literal(-3)))
        CFI DPL0 load(1, XDATA, add(CFA_XSP16, literal(-2)))
        CFI DPH0 load(1, XDATA, add(CFA_XSP16, literal(-1)))
        CFI CFA_SP SP+0
        CFI CFA_XSP16 add(XSP16, 10)
        CFI Block cfiCond41 Using cfiCommon0
        CFI (cfiCond41) NoFunction
        CFI (cfiCond41) Conditional ??CrossCallReturnLabel_13
        CFI (cfiCond41) R6 load(1, XDATA, add(CFA_XSP16, literal(-12)))
        CFI (cfiCond41) VB load(1, XDATA, add(CFA_XSP16, literal(-11)))
        CFI (cfiCond41) V0 load(1, XDATA, add(CFA_XSP16, literal(-10)))
        CFI (cfiCond41) V1 load(1, XDATA, add(CFA_XSP16, literal(-9)))
        CFI (cfiCond41) V2 load(1, XDATA, add(CFA_XSP16, literal(-8)))
        CFI (cfiCond41) V3 load(1, XDATA, add(CFA_XSP16, literal(-7)))
        CFI (cfiCond41) R7 load(1, XDATA, add(CFA_XSP16, literal(-6)))
        CFI (cfiCond41) ?RET_LOW load(1, XDATA, add(CFA_XSP16, literal(-5)))
        CFI (cfiCond41) ?RET_HIGH load(1, XDATA, add(CFA_XSP16, literal(-4)))
        CFI (cfiCond41) ?BRET_EXT load(1, XDATA, add(CFA_XSP16, literal(-3)))
        CFI (cfiCond41) DPL0 load(1, XDATA, add(CFA_XSP16, literal(-2)))
        CFI (cfiCond41) DPH0 load(1, XDATA, add(CFA_XSP16, literal(-1)))
        CFI (cfiCond41) CFA_SP SP+0
        CFI (cfiCond41) CFA_XSP16 add(XSP16, 12)
        CFI Block cfiPicker42 Using cfiCommon1
        CFI (cfiPicker42) NoFunction
        CFI (cfiPicker42) Picker
        MOV     DPL,A
        MOV     A,R3
        ADDC    A,#0x0
        MOV     DPH,A
        MOVX    A,@DPTR
        MOV     R0,A
        INC     DPTR
        MOVX    A,@DPTR
        MOV     DPH,A
        MOV     DPL,R0
        RET
        CFI EndBlock cfiCond40
        CFI EndBlock cfiCond41
        CFI EndBlock cfiPicker42

        RSEG BANKED_CODE:CODE:NOROOT(0)
?Subroutine7:
        CFI Block cfiCond43 Using cfiCommon0
        CFI NoFunction
        CFI Conditional ??CrossCallReturnLabel_10
        CFI R6 load(1, XDATA, add(CFA_XSP16, literal(-12)))
        CFI VB load(1, XDATA, add(CFA_XSP16, literal(-11)))
        CFI V0 load(1, XDATA, add(CFA_XSP16, literal(-10)))
        CFI V1 load(1, XDATA, add(CFA_XSP16, literal(-9)))
        CFI V2 load(1, XDATA, add(CFA_XSP16, literal(-8)))
        CFI V3 load(1, XDATA, add(CFA_XSP16, literal(-7)))
        CFI R7 load(1, XDATA, add(CFA_XSP16, literal(-6)))
        CFI ?RET_LOW load(1, XDATA, add(CFA_XSP16, literal(-5)))
        CFI ?RET_HIGH load(1, XDATA, add(CFA_XSP16, literal(-4)))
        CFI ?BRET_EXT load(1, XDATA, add(CFA_XSP16, literal(-3)))
        CFI DPL0 load(1, XDATA, add(CFA_XSP16, literal(-2)))
        CFI DPH0 load(1, XDATA, add(CFA_XSP16, literal(-1)))
        CFI CFA_SP SP+0
        CFI CFA_XSP16 add(XSP16, 12)
        CFI Block cfiCond44 Using cfiCommon0
        CFI (cfiCond44) NoFunction
        CFI (cfiCond44) Conditional ??CrossCallReturnLabel_11
        CFI (cfiCond44) R6 load(1, XDATA, add(CFA_XSP16, literal(-12)))
        CFI (cfiCond44) VB load(1, XDATA, add(CFA_XSP16, literal(-11)))
        CFI (cfiCond44) V0 load(1, XDATA, add(CFA_XSP16, literal(-10)))
        CFI (cfiCond44) V1 load(1, XDATA, add(CFA_XSP16, literal(-9)))
        CFI (cfiCond44) V2 load(1, XDATA, add(CFA_XSP16, literal(-8)))
        CFI (cfiCond44) V3 load(1, XDATA, add(CFA_XSP16, literal(-7)))
        CFI (cfiCond44) R7 load(1, XDATA, add(CFA_XSP16, literal(-6)))
        CFI (cfiCond44) ?RET_LOW load(1, XDATA, add(CFA_XSP16, literal(-5)))
        CFI (cfiCond44) ?RET_HIGH load(1, XDATA, add(CFA_XSP16, literal(-4)))
        CFI (cfiCond44) ?BRET_EXT load(1, XDATA, add(CFA_XSP16, literal(-3)))
        CFI (cfiCond44) DPL0 load(1, XDATA, add(CFA_XSP16, literal(-2)))
        CFI (cfiCond44) DPH0 load(1, XDATA, add(CFA_XSP16, literal(-1)))
        CFI (cfiCond44) CFA_SP SP+0
        CFI (cfiCond44) CFA_XSP16 add(XSP16, 12)
        CFI Block cfiPicker45 Using cfiCommon1
        CFI (cfiPicker45) NoFunction
        CFI (cfiPicker45) Picker
        MOV     DPL,R4
        MOV     DPH,R5
        MOVX    A,@DPTR
        ADD     A,R0
        MOV     ?V0 + 2,A
        INC     DPTR
        MOVX    A,@DPTR
        ADDC    A,R1
        MOV     DPL,?V0 + 2
        MOV     DPH,A
        MOVX    A,@DPTR
        DIV     AB
        RET
        CFI EndBlock cfiCond43
        CFI EndBlock cfiCond44
        CFI EndBlock cfiPicker45

        RSEG BANKED_CODE:CODE:NOROOT(0)
?Subroutine6:
        CFI Block cfiCond46 Using cfiCommon0
        CFI NoFunction
        CFI Conditional ??CrossCallReturnLabel_8
        CFI R6 load(1, XDATA, add(CFA_XSP16, literal(-12)))
        CFI VB load(1, XDATA, add(CFA_XSP16, literal(-11)))
        CFI V0 load(1, XDATA, add(CFA_XSP16, literal(-10)))
        CFI V1 load(1, XDATA, add(CFA_XSP16, literal(-9)))
        CFI V2 load(1, XDATA, add(CFA_XSP16, literal(-8)))
        CFI V3 load(1, XDATA, add(CFA_XSP16, literal(-7)))
        CFI R7 load(1, XDATA, add(CFA_XSP16, literal(-6)))
        CFI ?RET_LOW load(1, XDATA, add(CFA_XSP16, literal(-5)))
        CFI ?RET_HIGH load(1, XDATA, add(CFA_XSP16, literal(-4)))
        CFI ?BRET_EXT load(1, XDATA, add(CFA_XSP16, literal(-3)))
        CFI DPL0 load(1, XDATA, add(CFA_XSP16, literal(-2)))
        CFI DPH0 load(1, XDATA, add(CFA_XSP16, literal(-1)))
        CFI CFA_SP SP+0
        CFI CFA_XSP16 add(XSP16, 12)
        CFI Block cfiCond47 Using cfiCommon0
        CFI (cfiCond47) NoFunction
        CFI (cfiCond47) Conditional ??CrossCallReturnLabel_9
        CFI (cfiCond47) R6 load(1, XDATA, add(CFA_XSP16, literal(-12)))
        CFI (cfiCond47) VB load(1, XDATA, add(CFA_XSP16, literal(-11)))
        CFI (cfiCond47) V0 load(1, XDATA, add(CFA_XSP16, literal(-10)))
        CFI (cfiCond47) V1 load(1, XDATA, add(CFA_XSP16, literal(-9)))
        CFI (cfiCond47) V2 load(1, XDATA, add(CFA_XSP16, literal(-8)))
        CFI (cfiCond47) V3 load(1, XDATA, add(CFA_XSP16, literal(-7)))
        CFI (cfiCond47) R7 load(1, XDATA, add(CFA_XSP16, literal(-6)))
        CFI (cfiCond47) ?RET_LOW load(1, XDATA, add(CFA_XSP16, literal(-5)))
        CFI (cfiCond47) ?RET_HIGH load(1, XDATA, add(CFA_XSP16, literal(-4)))
        CFI (cfiCond47) ?BRET_EXT load(1, XDATA, add(CFA_XSP16, literal(-3)))
        CFI (cfiCond47) DPL0 load(1, XDATA, add(CFA_XSP16, literal(-2)))
        CFI (cfiCond47) DPH0 load(1, XDATA, add(CFA_XSP16, literal(-1)))
        CFI (cfiCond47) CFA_SP SP+0
        CFI (cfiCond47) CFA_XSP16 add(XSP16, 12)
        CFI Block cfiPicker48 Using cfiCommon1
        CFI (cfiPicker48) NoFunction
        CFI (cfiPicker48) Picker
        MOV     A,R2
        ADD     A,#0x21
        MOV     DPL,A
        MOV     A,R3
        ADDC    A,#0x0
        MOV     DPH,A
        LCALL   ?Subroutine14 & 0xFFFF
??CrossCallReturnLabel_23:
        INC     DPTR
        MOVX    A,@DPTR
        RET
        CFI EndBlock cfiCond46
        CFI EndBlock cfiCond47
        CFI EndBlock cfiPicker48

        RSEG BANKED_CODE:CODE:NOROOT(0)
?Subroutine14:
        CFI Block cfiCond49 Using cfiCommon0
        CFI NoFunction
        CFI Conditional ??CrossCallReturnLabel_22
        CFI R6 load(1, XDATA, add(CFA_XSP16, literal(-12)))
        CFI VB load(1, XDATA, add(CFA_XSP16, literal(-11)))
        CFI V0 load(1, XDATA, add(CFA_XSP16, literal(-10)))
        CFI V1 load(1, XDATA, add(CFA_XSP16, literal(-9)))
        CFI V2 load(1, XDATA, add(CFA_XSP16, literal(-8)))
        CFI V3 load(1, XDATA, add(CFA_XSP16, literal(-7)))
        CFI R7 load(1, XDATA, add(CFA_XSP16, literal(-6)))
        CFI ?RET_LOW load(1, XDATA, add(CFA_XSP16, literal(-5)))
        CFI ?RET_HIGH load(1, XDATA, add(CFA_XSP16, literal(-4)))
        CFI ?BRET_EXT load(1, XDATA, add(CFA_XSP16, literal(-3)))
        CFI DPL0 load(1, XDATA, add(CFA_XSP16, literal(-2)))
        CFI DPH0 load(1, XDATA, add(CFA_XSP16, literal(-1)))
        CFI CFA_SP SP+0
        CFI CFA_XSP16 add(XSP16, 12)
        CFI Block cfiCond50 Using cfiCommon0
        CFI (cfiCond50) NoFunction
        CFI (cfiCond50) Conditional ??CrossCallReturnLabel_23, ??CrossCallReturnLabel_8
        CFI (cfiCond50) R6 load(1, XDATA, add(CFA_XSP16, literal(-12)))
        CFI (cfiCond50) VB load(1, XDATA, add(CFA_XSP16, literal(-11)))
        CFI (cfiCond50) V0 load(1, XDATA, add(CFA_XSP16, literal(-10)))
        CFI (cfiCond50) V1 load(1, XDATA, add(CFA_XSP16, literal(-9)))
        CFI (cfiCond50) V2 load(1, XDATA, add(CFA_XSP16, literal(-8)))
        CFI (cfiCond50) V3 load(1, XDATA, add(CFA_XSP16, literal(-7)))
        CFI (cfiCond50) R7 load(1, XDATA, add(CFA_XSP16, literal(-6)))
        CFI (cfiCond50) ?RET_LOW load(1, XDATA, add(CFA_XSP16, literal(-5)))
        CFI (cfiCond50) ?RET_HIGH load(1, XDATA, add(CFA_XSP16, literal(-4)))
        CFI (cfiCond50) ?BRET_EXT load(1, XDATA, add(CFA_XSP16, literal(-3)))
        CFI (cfiCond50) DPL0 load(1, XDATA, add(CFA_XSP16, literal(-2)))
        CFI (cfiCond50) DPH0 load(1, XDATA, add(CFA_XSP16, literal(-1)))
        CFI (cfiCond50) CFA_SP SP+0
        CFI (cfiCond50) CFA_XSP16 add(XSP16, 12)
        CFI Block cfiCond51 Using cfiCommon0
        CFI (cfiCond51) NoFunction
        CFI (cfiCond51) Conditional ??CrossCallReturnLabel_23, ??CrossCallReturnLabel_9
        CFI (cfiCond51) R6 load(1, XDATA, add(CFA_XSP16, literal(-12)))
        CFI (cfiCond51) VB load(1, XDATA, add(CFA_XSP16, literal(-11)))
        CFI (cfiCond51) V0 load(1, XDATA, add(CFA_XSP16, literal(-10)))
        CFI (cfiCond51) V1 load(1, XDATA, add(CFA_XSP16, literal(-9)))
        CFI (cfiCond51) V2 load(1, XDATA, add(CFA_XSP16, literal(-8)))
        CFI (cfiCond51) V3 load(1, XDATA, add(CFA_XSP16, literal(-7)))
        CFI (cfiCond51) R7 load(1, XDATA, add(CFA_XSP16, literal(-6)))
        CFI (cfiCond51) ?RET_LOW load(1, XDATA, add(CFA_XSP16, literal(-5)))
        CFI (cfiCond51) ?RET_HIGH load(1, XDATA, add(CFA_XSP16, literal(-4)))
        CFI (cfiCond51) ?BRET_EXT load(1, XDATA, add(CFA_XSP16, literal(-3)))
        CFI (cfiCond51) DPL0 load(1, XDATA, add(CFA_XSP16, literal(-2)))
        CFI (cfiCond51) DPH0 load(1, XDATA, add(CFA_XSP16, literal(-1)))
        CFI (cfiCond51) CFA_SP SP+0
        CFI (cfiCond51) CFA_XSP16 add(XSP16, 12)
        CFI Block cfiPicker52 Using cfiCommon1
        CFI (cfiPicker52) NoFunction
        CFI (cfiPicker52) Picker
        INC     DPTR
        MOVX    A,@DPTR
        MOV     DPH,A
        MOV     DPL,R0
        INC     DPTR
        INC     DPTR
        INC     DPTR
        INC     DPTR
        RET
        CFI EndBlock cfiCond49
        CFI EndBlock cfiCond50
        CFI EndBlock cfiCond51
        CFI EndBlock cfiPicker52

        RSEG BANKED_CODE:CODE:NOROOT(0)
?Subroutine5:
        CFI Block cfiCond53 Using cfiCommon0
        CFI NoFunction
        CFI Conditional ??CrossCallReturnLabel_6
        CFI R6 load(1, XDATA, add(CFA_XSP16, literal(-10)))
        CFI VB load(1, XDATA, add(CFA_XSP16, literal(-9)))
        CFI V0 load(1, XDATA, add(CFA_XSP16, literal(-8)))
        CFI V1 load(1, XDATA, add(CFA_XSP16, literal(-7)))
        CFI R7 load(1, XDATA, add(CFA_XSP16, literal(-6)))
        CFI ?RET_LOW load(1, XDATA, add(CFA_XSP16, literal(-5)))
        CFI ?RET_HIGH load(1, XDATA, add(CFA_XSP16, literal(-4)))
        CFI ?BRET_EXT load(1, XDATA, add(CFA_XSP16, literal(-3)))
        CFI DPL0 load(1, XDATA, add(CFA_XSP16, literal(-2)))
        CFI DPH0 load(1, XDATA, add(CFA_XSP16, literal(-1)))
        CFI CFA_SP SP+0
        CFI CFA_XSP16 add(XSP16, 10)
        CFI Block cfiCond54 Using cfiCommon0
        CFI (cfiCond54) NoFunction
        CFI (cfiCond54) Conditional ??CrossCallReturnLabel_7
        CFI (cfiCond54) R6 load(1, XDATA, add(CFA_XSP16, literal(-12)))
        CFI (cfiCond54) VB load(1, XDATA, add(CFA_XSP16, literal(-11)))
        CFI (cfiCond54) V0 load(1, XDATA, add(CFA_XSP16, literal(-10)))
        CFI (cfiCond54) V1 load(1, XDATA, add(CFA_XSP16, literal(-9)))
        CFI (cfiCond54) V2 load(1, XDATA, add(CFA_XSP16, literal(-8)))
        CFI (cfiCond54) V3 load(1, XDATA, add(CFA_XSP16, literal(-7)))
        CFI (cfiCond54) R7 load(1, XDATA, add(CFA_XSP16, literal(-6)))
        CFI (cfiCond54) ?RET_LOW load(1, XDATA, add(CFA_XSP16, literal(-5)))
        CFI (cfiCond54) ?RET_HIGH load(1, XDATA, add(CFA_XSP16, literal(-4)))
        CFI (cfiCond54) ?BRET_EXT load(1, XDATA, add(CFA_XSP16, literal(-3)))
        CFI (cfiCond54) DPL0 load(1, XDATA, add(CFA_XSP16, literal(-2)))
        CFI (cfiCond54) DPH0 load(1, XDATA, add(CFA_XSP16, literal(-1)))
        CFI (cfiCond54) CFA_SP SP+0
        CFI (cfiCond54) CFA_XSP16 add(XSP16, 12)
        CFI Block cfiPicker55 Using cfiCommon1
        CFI (cfiPicker55) NoFunction
        CFI (cfiPicker55) Picker
        MOVX    @DPTR,A
        MOV     DPL,R6
        MOV     DPH,R7
        INC     DPTR
        INC     DPTR
        INC     DPTR
        INC     DPTR
        RET
        CFI EndBlock cfiCond53
        CFI EndBlock cfiCond54
        CFI EndBlock cfiPicker55

        RSEG BANKED_CODE:CODE:NOROOT(0)
TransmitApp_SendTheMessage:
        CFI Block cfiBlock56 Using cfiCommon0
        CFI Function TransmitApp_SendTheMessage
        FUNCALL TransmitApp_SendTheMessage, AF_DataRequest
        LOCFRAME ISTACK, 0, STACK
        LOCFRAME PSTACK, 0, STACK
        LOCFRAME XSTACK, 19, STACK
        LOCFRAME IOVERLAY, 0, STATIC
        LOCFRAME DOVERLAY, 0, STATIC
        ARGFRAME ISTACK, 0, STACK
        ARGFRAME PSTACK, 0, STACK
        ARGFRAME XSTACK, 19, STACK
        ARGFRAME IOVERLAY, 0, STATIC
        ARGFRAME DOVERLAY, 0, STATIC
        FUNCALL TransmitApp_SendTheMessage, uart_sent
        LOCFRAME ISTACK, 0, STACK
        LOCFRAME PSTACK, 0, STACK
        LOCFRAME XSTACK, 10, STACK
        LOCFRAME IOVERLAY, 0, STATIC
        LOCFRAME DOVERLAY, 0, STATIC
        ARGFRAME ISTACK, 0, STACK
        ARGFRAME PSTACK, 0, STACK
        ARGFRAME XSTACK, 10, STACK
        ARGFRAME IOVERLAY, 0, STATIC
        ARGFRAME DOVERLAY, 0, STATIC
        FUNCALL TransmitApp_SendTheMessage, uart_sent
        LOCFRAME ISTACK, 0, STACK
        LOCFRAME PSTACK, 0, STACK
        LOCFRAME XSTACK, 10, STACK
        LOCFRAME IOVERLAY, 0, STATIC
        LOCFRAME DOVERLAY, 0, STATIC
        ARGFRAME ISTACK, 0, STACK
        ARGFRAME PSTACK, 0, STACK
        ARGFRAME XSTACK, 10, STACK
        ARGFRAME IOVERLAY, 0, STATIC
        ARGFRAME DOVERLAY, 0, STATIC
        FUNCALL TransmitApp_SendTheMessage, osal_start_timerEx
        LOCFRAME ISTACK, 0, STACK
        LOCFRAME PSTACK, 0, STACK
        LOCFRAME XSTACK, 10, STACK
        LOCFRAME IOVERLAY, 0, STATIC
        LOCFRAME DOVERLAY, 0, STATIC
        ARGFRAME ISTACK, 0, STACK
        ARGFRAME PSTACK, 0, STACK
        ARGFRAME XSTACK, 10, STACK
        ARGFRAME IOVERLAY, 0, STATIC
        ARGFRAME DOVERLAY, 0, STATIC
        MOV     A,#-0xa
        LCALL   ?BANKED_ENTER_XDATA
        CFI R6 load(1, XDATA, add(CFA_XSP16, literal(-10)))
        CFI VB load(1, XDATA, add(CFA_XSP16, literal(-9)))
        CFI V0 load(1, XDATA, add(CFA_XSP16, literal(-8)))
        CFI V1 load(1, XDATA, add(CFA_XSP16, literal(-7)))
        CFI R7 load(1, XDATA, add(CFA_XSP16, literal(-6)))
        CFI ?RET_LOW load(1, XDATA, add(CFA_XSP16, literal(-5)))
        CFI ?RET_HIGH load(1, XDATA, add(CFA_XSP16, literal(-4)))
        CFI ?BRET_EXT load(1, XDATA, add(CFA_XSP16, literal(-3)))
        CFI DPL0 load(1, XDATA, add(CFA_XSP16, literal(-2)))
        CFI DPH0 load(1, XDATA, add(CFA_XSP16, literal(-1)))
        CFI CFA_SP SP+0
        CFI CFA_XSP16 add(XSP16, 10)
        ; Saved register size: 10
        ; Auto size: 0
??TransmitApp_SendTheMessage_0:
        ANL     0xfe,#0xf7
        MOV     C,0x90.3
        JNC     ??TransmitApp_SendTheMessage_1
        MOV     A,#0x1
        SJMP    ??TransmitApp_SendTheMessage_2
??TransmitApp_SendTheMessage_1:
        CLR     A
??TransmitApp_SendTheMessage_2:
        MOV     DPTR,#TransmitApp_Msg
        MOVX    @DPTR,A
        MOV     A,#0x14
        MOV     DPTR,#(TransmitApp_Msg + 1)
        MOVX    @DPTR,A
        MOV     A,#0x23
        MOV     DPTR,#(TransmitApp_Msg + 2)
        MOVX    @DPTR,A
        MOV     A,#0xa
        MOV     DPTR,#(TransmitApp_Msg + 3)
        MOVX    @DPTR,A
        ANL     0xfd,#0xbf
        MOV     DPTR,#light
        MOVX    A,@DPTR
        JZ      ??TransmitApp_SendTheMessage_3
        MOV     A,#0x64
        SJMP    ??TransmitApp_SendTheMessage_4
??TransmitApp_SendTheMessage_3:
        CLR     A
??TransmitApp_SendTheMessage_4:
        MOV     DPTR,#(TransmitApp_Msg + 4)
        MOVX    @DPTR,A
        MOV     DPTR,#alarm
        MOVX    A,@DPTR
        JZ      ??TransmitApp_SendTheMessage_5
        MOV     A,#0x1
        SJMP    ??TransmitApp_SendTheMessage_6
??TransmitApp_SendTheMessage_5:
        CLR     A
??TransmitApp_SendTheMessage_6:
        MOV     DPTR,#(TransmitApp_Msg + 5)
        MOVX    @DPTR,A
        ; Setup parameters for call to function AF_DataRequest
        MOV     ?V0 + 0,#0x1e
        MOV     R0,#?V0 + 0
        LCALL   ?PUSH_XSTACK_I_ONE
        CFI CFA_XSP16 add(XSP16, 11)
        MOV     ?V0 + 0,#(TransmitApp_TransID & 0xff)
        MOV     ?V0 + 1,#((TransmitApp_TransID >> 8) & 0xff)
        MOV     R0,#?V0 + 0
        LCALL   ?PUSH_XSTACK_I_TWO
        CFI CFA_XSP16 add(XSP16, 13)
        MOV     ?V0 + 0,#(TransmitApp_Msg & 0xff)
        MOV     ?V0 + 1,#((TransmitApp_Msg >> 8) & 0xff)
        MOV     R0,#?V0 + 0
        LCALL   ?PUSH_XSTACK_I_TWO
        CFI CFA_XSP16 add(XSP16, 15)
        MOV     ?V0 + 0,#0x6
        MOV     ?V0 + 1,#0x0
        MOV     R0,#?V0 + 0
        LCALL   ?PUSH_XSTACK_I_TWO
        CFI CFA_XSP16 add(XSP16, 17)
        MOV     ?V0 + 0,#0x1
        MOV     R0,#?V0 + 0
        LCALL   ?PUSH_XSTACK_I_TWO
        CFI CFA_XSP16 add(XSP16, 19)
        MOV     R1,#0x20
        MOV     R4,#(TransmitApp_epDesc & 0xff)
        MOV     R5,#((TransmitApp_epDesc >> 8) & 0xff)
        MOV     R2,#(TransmitApp_DstAddr & 0xff)
        MOV     R3,#((TransmitApp_DstAddr >> 8) & 0xff)
        LCALL   ??AF_DataRequest?relay
        MOV     A,#0x9
        LCALL   ?DEALLOC_XSTACK8
        CFI CFA_XSP16 add(XSP16, 10)
        MOV     A,R1
        MOV     R2,A
        MOV     DPTR,#timesToSend
        MOVX    A,@DPTR
        JZ      ??TransmitApp_SendTheMessage_7
        DEC     A
        MOVX    @DPTR,A
        JZ      ??TransmitApp_SendTheMessage_7
        MOV     A,R2
        JNZ     $+5
        LJMP    ??TransmitApp_SendTheMessage_0 & 0xFFFF
??TransmitApp_SendTheMessage_7:
        MOV     A,R2
        JNZ     ??TransmitApp_SendTheMessage_8
        MOV     DPTR,#pktCounter
        MOVX    A,@DPTR
        ADD     A,#0x1
        MOVX    @DPTR,A
        INC     DPTR
        MOVX    A,@DPTR
        ADDC    A,#0x0
        MOVX    @DPTR,A
        ; Setup parameters for call to function uart_sent
        MOV     R1,#0x0
        MOV     R2,#(`?<Constant "Sucess !\\n">` & 0xff)
        MOV     R3,#((`?<Constant "Sucess !\\n">` >> 8) & 0xff)
        LCALL   ??uart_sent?relay
        SJMP    ??TransmitApp_SendTheMessage_9
??TransmitApp_SendTheMessage_8:
        ; Setup parameters for call to function uart_sent
        MOV     R1,#0x0
        MOV     R2,#(`?<Constant "sent Error, so wait (...">` & 0xff)
        MOV     R3,#((`?<Constant "sent Error, so wait (...">` >> 8) & 0xff)
        LCALL   ??uart_sent?relay
        ; Setup parameters for call to function osal_start_timerEx
        MOV     R4,#-0xc
        MOV     R5,#0x1
        MOV     R2,#0x4
        MOV     R3,#0x0
        MOV     DPTR,#TransmitApp_TaskID
        MOVX    A,@DPTR
        MOV     R1,A
        LCALL   ??osal_start_timerEx?relay
??TransmitApp_SendTheMessage_9:
        LJMP    ?Subroutine1 & 0xFFFF
        CFI EndBlock cfiBlock56
        REQUIRE _A_P1
        REQUIRE P0DIR
        REQUIRE P1DIR

        RSEG BANKED_CODE:CODE:NOROOT(0)
TransmitApp_ChangeState:
        CFI Block cfiBlock57 Using cfiCommon0
        CFI Function TransmitApp_ChangeState
        FUNCALL TransmitApp_ChangeState, TransmitApp_SetSendEvt
        LOCFRAME ISTACK, 2, STACK
        LOCFRAME PSTACK, 0, STACK
        LOCFRAME XSTACK, 0, STACK
        LOCFRAME IOVERLAY, 0, STATIC
        LOCFRAME DOVERLAY, 0, STATIC
        ARGFRAME ISTACK, 2, STACK
        ARGFRAME PSTACK, 0, STACK
        ARGFRAME XSTACK, 0, STACK
        ARGFRAME IOVERLAY, 0, STATIC
        ARGFRAME DOVERLAY, 0, STATIC
        PUSH    DPL
        CFI DPL0 Frame(CFA_SP, 4)
        CFI CFA_SP SP+-4
        PUSH    DPH
        CFI DPH0 Frame(CFA_SP, 5)
        CFI CFA_SP SP+-5
        ; Saved register size: 2
        ; Auto size: 0
        MOV     DPTR,#TransmitApp_State
        MOVX    A,@DPTR
        JNZ     ??TransmitApp_ChangeState_0
        MOV     A,#0x1
        MOVX    @DPTR,A
        ; Setup parameters for call to function TransmitApp_SetSendEvt
        LCALL   ??TransmitApp_SetSendEvt?relay
        MOV     A,#0x2
        MOV     DPTR,#timesToSend
        SJMP    ??TransmitApp_ChangeState_1
??TransmitApp_ChangeState_0:
        CLR     A
??TransmitApp_ChangeState_1:
        MOVX    @DPTR,A
        CFI EndBlock cfiBlock57
        REQUIRE ?Subroutine2
        ; // Fall through to label ?Subroutine2

        RSEG BANKED_CODE:CODE:NOROOT(0)
?Subroutine2:
        CFI Block cfiBlock58 Using cfiCommon0
        CFI NoFunction
        CFI CFA_SP SP+-5
        CFI DPL0 Frame(CFA_SP, 4)
        CFI DPH0 Frame(CFA_SP, 5)
        POP     DPH
        CFI CFA_SP SP+-4
        CFI DPH0 SameValue
        POP     DPL
        CFI CFA_SP SP+-3
        CFI DPL0 SameValue
        LJMP    ?BRET
        CFI EndBlock cfiBlock58

        RSEG BANKED_CODE:CODE:NOROOT(0)
TransmitApp_SetSendEvt:
        CFI Block cfiBlock59 Using cfiCommon0
        CFI Function TransmitApp_SetSendEvt
        FUNCALL TransmitApp_SetSendEvt, osal_set_event
        LOCFRAME ISTACK, 2, STACK
        LOCFRAME PSTACK, 0, STACK
        LOCFRAME XSTACK, 0, STACK
        LOCFRAME IOVERLAY, 0, STATIC
        LOCFRAME DOVERLAY, 0, STATIC
        ARGFRAME ISTACK, 2, STACK
        ARGFRAME PSTACK, 0, STACK
        ARGFRAME XSTACK, 0, STACK
        ARGFRAME IOVERLAY, 0, STATIC
        ARGFRAME DOVERLAY, 0, STATIC
        PUSH    DPL
        CFI DPL0 Frame(CFA_SP, 4)
        CFI CFA_SP SP+-4
        PUSH    DPH
        CFI DPH0 Frame(CFA_SP, 5)
        CFI CFA_SP SP+-5
        ; Saved register size: 2
        ; Auto size: 0
        ; Setup parameters for call to function osal_set_event
        MOV     R2,#0x1
        MOV     R3,#0x0
        MOV     DPTR,#TransmitApp_TaskID
        MOVX    A,@DPTR
        MOV     R1,A
        LCALL   ??osal_set_event?relay
        SJMP    ?Subroutine2
        CFI EndBlock cfiBlock59

        RSEG BANKED_CODE:CODE:NOROOT(0)
uart_sent:
        CFI Block cfiBlock60 Using cfiCommon0
        CFI Function uart_sent
        FUNCALL uart_sent, osal_strlen
        LOCFRAME ISTACK, 0, STACK
        LOCFRAME PSTACK, 0, STACK
        LOCFRAME XSTACK, 10, STACK
        LOCFRAME IOVERLAY, 0, STATIC
        LOCFRAME DOVERLAY, 0, STATIC
        ARGFRAME ISTACK, 0, STACK
        ARGFRAME PSTACK, 0, STACK
        ARGFRAME XSTACK, 10, STACK
        ARGFRAME IOVERLAY, 0, STATIC
        ARGFRAME DOVERLAY, 0, STATIC
        FUNCALL uart_sent, HalUARTWrite
        LOCFRAME ISTACK, 0, STACK
        LOCFRAME PSTACK, 0, STACK
        LOCFRAME XSTACK, 10, STACK
        LOCFRAME IOVERLAY, 0, STATIC
        LOCFRAME DOVERLAY, 0, STATIC
        ARGFRAME ISTACK, 0, STACK
        ARGFRAME PSTACK, 0, STACK
        ARGFRAME XSTACK, 10, STACK
        ARGFRAME IOVERLAY, 0, STATIC
        ARGFRAME DOVERLAY, 0, STATIC
        MOV     A,#-0xa
        LCALL   ?BANKED_ENTER_XDATA
        CFI DPH0 load(1, XDATA, add(CFA_XSP16, literal(-1)))
        CFI DPL0 load(1, XDATA, add(CFA_XSP16, literal(-2)))
        CFI ?BRET_EXT load(1, XDATA, add(CFA_XSP16, literal(-3)))
        CFI ?RET_HIGH load(1, XDATA, add(CFA_XSP16, literal(-4)))
        CFI ?RET_LOW load(1, XDATA, add(CFA_XSP16, literal(-5)))
        CFI R7 load(1, XDATA, add(CFA_XSP16, literal(-6)))
        CFI V1 load(1, XDATA, add(CFA_XSP16, literal(-7)))
        CFI V0 load(1, XDATA, add(CFA_XSP16, literal(-8)))
        CFI VB load(1, XDATA, add(CFA_XSP16, literal(-9)))
        CFI R6 load(1, XDATA, add(CFA_XSP16, literal(-10)))
        CFI CFA_SP SP+0
        CFI CFA_XSP16 add(XSP16, 10)
        ; Saved register size: 10
        ; Auto size: 0
        MOV     A,R2
        MOV     R6,A
        MOV     A,R3
        MOV     R7,A
        MOV     ?V0 + 0,R1
        MOV     A,R1
        JNZ     ??uart_sent_0
        ; Setup parameters for call to function osal_strlen
        LCALL   ??osal_strlen?relay
        MOV     A,R2
        MOV     ?V0 + 0,A
??uart_sent_0:
        ; Setup parameters for call to function HalUARTWrite
        MOV     R4,?V0 + 0
        MOV     R5,#0x0
        MOV     A,R6
        MOV     R2,A
        MOV     A,R7
        MOV     R3,A
        MOV     R1,#0x0
        LCALL   ??HalUARTWrite?relay
        LJMP    ?Subroutine1 & 0xFFFF
        CFI EndBlock cfiBlock60

        RSEG BANKED_CODE:CODE:NOROOT(0)
//  908 void TransmitApp_DisplayResults( void )
TransmitApp_DisplayResults:
        CFI Block cfiBlock61 Using cfiCommon0
        CFI Function TransmitApp_DisplayResults
//  909 {
        FUNCALL TransmitApp_DisplayResults, osal_GetSystemClock
        LOCFRAME ISTACK, 0, STACK
        LOCFRAME PSTACK, 0, STACK
        LOCFRAME XSTACK, 45, STACK
        LOCFRAME IOVERLAY, 0, STATIC
        LOCFRAME DOVERLAY, 0, STATIC
        ARGFRAME ISTACK, 0, STACK
        ARGFRAME PSTACK, 0, STACK
        ARGFRAME XSTACK, 45, STACK
        ARGFRAME IOVERLAY, 0, STATIC
        ARGFRAME DOVERLAY, 0, STATIC
        FUNCALL TransmitApp_DisplayResults, osal_GetSystemClock
        LOCFRAME ISTACK, 0, STACK
        LOCFRAME PSTACK, 0, STACK
        LOCFRAME XSTACK, 45, STACK
        LOCFRAME IOVERLAY, 0, STATIC
        LOCFRAME DOVERLAY, 0, STATIC
        ARGFRAME ISTACK, 0, STACK
        ARGFRAME PSTACK, 0, STACK
        ARGFRAME XSTACK, 45, STACK
        ARGFRAME IOVERLAY, 0, STATIC
        ARGFRAME DOVERLAY, 0, STATIC
        FUNCALL TransmitApp_DisplayResults, osal_memset
        LOCFRAME ISTACK, 0, STACK
        LOCFRAME PSTACK, 0, STACK
        LOCFRAME XSTACK, 45, STACK
        LOCFRAME IOVERLAY, 0, STATIC
        LOCFRAME DOVERLAY, 0, STATIC
        ARGFRAME ISTACK, 0, STACK
        ARGFRAME PSTACK, 0, STACK
        ARGFRAME XSTACK, 45, STACK
        ARGFRAME IOVERLAY, 0, STATIC
        ARGFRAME DOVERLAY, 0, STATIC
        FUNCALL TransmitApp_DisplayResults, HalLcdWriteString
        LOCFRAME ISTACK, 0, STACK
        LOCFRAME PSTACK, 0, STACK
        LOCFRAME XSTACK, 45, STACK
        LOCFRAME IOVERLAY, 0, STATIC
        LOCFRAME DOVERLAY, 0, STATIC
        ARGFRAME ISTACK, 0, STACK
        ARGFRAME PSTACK, 0, STACK
        ARGFRAME XSTACK, 45, STACK
        ARGFRAME IOVERLAY, 0, STATIC
        ARGFRAME DOVERLAY, 0, STATIC
        FUNCALL TransmitApp_DisplayResults, osal_memset
        LOCFRAME ISTACK, 0, STACK
        LOCFRAME PSTACK, 0, STACK
        LOCFRAME XSTACK, 45, STACK
        LOCFRAME IOVERLAY, 0, STATIC
        LOCFRAME DOVERLAY, 0, STATIC
        ARGFRAME ISTACK, 0, STACK
        ARGFRAME PSTACK, 0, STACK
        ARGFRAME XSTACK, 45, STACK
        ARGFRAME IOVERLAY, 0, STATIC
        ARGFRAME DOVERLAY, 0, STATIC
        FUNCALL TransmitApp_DisplayResults, HalLcdWriteString
        LOCFRAME ISTACK, 0, STACK
        LOCFRAME PSTACK, 0, STACK
        LOCFRAME XSTACK, 45, STACK
        LOCFRAME IOVERLAY, 0, STATIC
        LOCFRAME DOVERLAY, 0, STATIC
        ARGFRAME ISTACK, 0, STACK
        ARGFRAME PSTACK, 0, STACK
        ARGFRAME XSTACK, 45, STACK
        ARGFRAME IOVERLAY, 0, STATIC
        ARGFRAME DOVERLAY, 0, STATIC
        MOV     A,#-0x18
        LCALL   ?BANKED_ENTER_XDATA
        CFI DPH0 load(1, XDATA, add(CFA_XSP16, literal(-1)))
        CFI DPL0 load(1, XDATA, add(CFA_XSP16, literal(-2)))
        CFI ?BRET_EXT load(1, XDATA, add(CFA_XSP16, literal(-3)))
        CFI ?RET_HIGH load(1, XDATA, add(CFA_XSP16, literal(-4)))
        CFI ?RET_LOW load(1, XDATA, add(CFA_XSP16, literal(-5)))
        CFI R7 load(1, XDATA, add(CFA_XSP16, literal(-6)))
        CFI V15 load(1, XDATA, add(CFA_XSP16, literal(-7)))
        CFI V14 load(1, XDATA, add(CFA_XSP16, literal(-8)))
        CFI V13 load(1, XDATA, add(CFA_XSP16, literal(-9)))
        CFI V12 load(1, XDATA, add(CFA_XSP16, literal(-10)))
        CFI V11 load(1, XDATA, add(CFA_XSP16, literal(-11)))
        CFI V10 load(1, XDATA, add(CFA_XSP16, literal(-12)))
        CFI V9 load(1, XDATA, add(CFA_XSP16, literal(-13)))
        CFI V8 load(1, XDATA, add(CFA_XSP16, literal(-14)))
        CFI V7 load(1, XDATA, add(CFA_XSP16, literal(-15)))
        CFI V6 load(1, XDATA, add(CFA_XSP16, literal(-16)))
        CFI V5 load(1, XDATA, add(CFA_XSP16, literal(-17)))
        CFI V4 load(1, XDATA, add(CFA_XSP16, literal(-18)))
        CFI V3 load(1, XDATA, add(CFA_XSP16, literal(-19)))
        CFI V2 load(1, XDATA, add(CFA_XSP16, literal(-20)))
        CFI V1 load(1, XDATA, add(CFA_XSP16, literal(-21)))
        CFI V0 load(1, XDATA, add(CFA_XSP16, literal(-22)))
        CFI VB load(1, XDATA, add(CFA_XSP16, literal(-23)))
        CFI R6 load(1, XDATA, add(CFA_XSP16, literal(-24)))
        CFI CFA_SP SP+0
        CFI CFA_XSP16 add(XSP16, 24)
        ; Saved register size: 24
        ; Auto size: 21
        MOV     A,#-0x15
        LCALL   ?ALLOC_XSTACK8
        CFI CFA_XSP16 add(XSP16, 45)
//  910 #ifdef LCD_SUPPORTED
//  911   #define LCD_W  16
//  912   uint32 rxShdw, txShdw, tmp;
//  913   byte lcd_buf[LCD_W+1];
//  914   byte idx;
//  915 #endif
//  916   // The OSAL timers are not real-time, so calculate the actual time expired.
//  917   uint32 msecs = osal_GetSystemClock() - clkShdw;
        ; Setup parameters for call to function osal_GetSystemClock
        LCALL   ?Subroutine12 & 0xFFFF
??CrossCallReturnLabel_18:
        LCALL   ?L_SUB_X
        MOV     DPL,?XSP + 0
        MOV     DPH,?XSP + 1
        MOV     R0,#?V0 + 0
        LCALL   ?L_MOV_TO_X
//  918   clkShdw = osal_GetSystemClock();
        ; Setup parameters for call to function osal_GetSystemClock
        LCALL   ?Subroutine12 & 0xFFFF
??CrossCallReturnLabel_19:
        LCALL   ?L_MOV_TO_X
//  919 
//  920   rxTotal += rxAccum;
        MOV     DPTR,#rxAccum
        MOV     R0,#?V0 + 0
        LCALL   ?L_MOV_X
        MOV     DPTR,#rxTotal
        MOV     R0,#?V0 + 0
        LCALL   ?L_ADD_TO_X
//  921   txTotal += txAccum;
        MOV     DPTR,#txAccum
        MOV     R0,#?V0 + 0
        LCALL   ?L_MOV_X
        MOV     DPTR,#txTotal
        MOV     R0,#?V0 + 0
        LCALL   ?L_ADD_TO_X
//  922 
//  923 #if defined ( LCD_SUPPORTED )
//  924   rxShdw = (rxAccum * 1000 + msecs/2) / msecs;
        MOV     DPL,?XSP + 0
        MOV     DPH,?XSP + 1
        MOV     R0,#?V0 + 8
        LCALL   ?L_MOV_X
        MOV     A,#0x1
        MOV     R0,#?V0 + 8
        LCALL   ?UL_SHR
        MOV     DPTR,#rxAccum
        MOV     R0,#?V0 + 0
        LCALL   ?L_MOV_X
        MOV     DPTR,#__Constant_3e8
        MOV     R0,#?V0 + 4
        LCALL   ?L_MOV_X
        MOV     R0,#?V0 + 0
        MOV     R1,#?V0 + 4
        LCALL   ?L_MUL
        MOV     R0,#?V0 + 0
        MOV     R1,#?V0 + 8
        LCALL   ?L_ADD
        MOV     DPL,?XSP + 0
        MOV     DPH,?XSP + 1
        MOV     R0,#?V0 + 4
        LCALL   ?L_MOV_X
        MOV     R0,#?V0 + 0
        MOV     R1,#?V0 + 4
        LCALL   ?UL_DIV_MOD
//  925   txShdw = (txAccum * 1000 + msecs/2) / msecs;
        MOV     DPTR,#txAccum
        MOV     R0,#?V0 + 4
        LCALL   ?L_MOV_X
        MOV     DPTR,#__Constant_3e8
        MOV     R0,#?V0 + 12
        LCALL   ?L_MOV_X
        MOV     R0,#?V0 + 4
        MOV     R1,#?V0 + 12
        LCALL   ?L_MUL
        MOV     R0,#?V0 + 4
        MOV     R1,#?V0 + 8
        LCALL   ?L_ADD
        MOV     DPL,?XSP + 0
        MOV     DPH,?XSP + 1
        MOV     R0,#?V0 + 8
        LCALL   ?L_MOV_X
        MOV     R0,#?V0 + 4
        MOV     R1,#?V0 + 8
        LCALL   ?UL_DIV_MOD
//  926 
//  927   osal_memset( lcd_buf, ' ', LCD_W );
        ; Setup parameters for call to function osal_memset
        MOV     R4,#0x10
        MOV     R5,#0x0
        MOV     R1,#0x20
        MOV     A,#0x4
        LCALL   ?XSTACK_DISP0_8
        MOV     R2,DPL
        MOV     R3,DPH
        LCALL   ??osal_memset?relay
//  928   lcd_buf[LCD_W] = NULL;
        MOV     A,#0x14
        LCALL   ?XSTACK_DISP0_8
        CLR     A
        MOVX    @DPTR,A
//  929 
//  930   idx = 4;
        MOV     R2,#0x4
//  931   tmp = (rxShdw >= 100000) ? 99999 : rxShdw;
        MOV     DPTR,#__Constant_186a0
        MOV     R0,#?V0 + 8
        LCALL   ?L_MOV_X
        MOV     R0,#?V0 + 8
        MOV     R1,#?V0 + 0
        LCALL   ?UL_GT
        JC      ??TransmitApp_DisplayResults_0
        MOV     DPTR,#__Constant_1869f
        MOV     R0,#?V0 + 8
        LCALL   ?L_MOV_X
        SJMP    ??TransmitApp_DisplayResults_1
??TransmitApp_DisplayResults_0:
        MOV     ?V0 + 8,?V0 + 0
        MOV     ?V0 + 9,?V0 + 1
        MOV     ?V0 + 10,?V0 + 2
        MOV     ?V0 + 11,?V0 + 3
//  932   do
//  933   {
//  934     lcd_buf[idx--] = (uint8) ('0' + (tmp % 10));
??TransmitApp_DisplayResults_1:
        MOV     ?V0 + 0,?V0 + 8
        MOV     ?V0 + 1,?V0 + 9
        MOV     ?V0 + 2,?V0 + 10
        MOV     ?V0 + 3,?V0 + 11
        MOV     DPTR,#__Constant_a
        MOV     R0,#?V0 + 12
        LCALL   ?L_MOV_X
        MOV     R0,#?V0 + 0
        MOV     R1,#?V0 + 12
        LCALL   ?UL_DIV_MOD
        MOV     A,?V0 + 12
        ADD     A,#0x30
        PUSH    A
        CFI CFA_SP SP+-1
        MOV     ?V0 + 0,R2
        MOV     A,#0x4
        LCALL   ?XSTACK_DISP0_8
        LCALL   ?Subroutine11 & 0xFFFF
//  935     tmp /= 10;
//  936   } while ( tmp );
??CrossCallReturnLabel_33:
        POP     A
        CFI CFA_SP SP+0
        LCALL   ?Subroutine3 & 0xFFFF
??CrossCallReturnLabel_0:
        LCALL   ?L_MOV_X
        MOV     R0,#?V0 + 8
        MOV     R1,#?V0 + 0
        LCALL   ?UL_DIV_MOD
        MOV     DPTR,#__Constant_0
        MOV     R0,#?V0 + 8
        LCALL   ?L_EQ_X
        JNZ     ??TransmitApp_DisplayResults_1
//  937 
//  938   idx = LCD_W-1;
        MOV     R2,#0xf
//  939   tmp = rxTotal;
        MOV     DPTR,#rxTotal
        MOV     R0,#?V0 + 8
        LCALL   ?L_MOV_X
//  940   do
//  941   {
//  942     lcd_buf[idx--] = (uint8) ('0' + (tmp % 10));
??TransmitApp_DisplayResults_2:
        MOV     ?V0 + 0,?V0 + 8
        MOV     ?V0 + 1,?V0 + 9
        MOV     ?V0 + 2,?V0 + 10
        MOV     ?V0 + 3,?V0 + 11
        MOV     DPTR,#__Constant_a
        MOV     R0,#?V0 + 12
        LCALL   ?L_MOV_X
        MOV     R0,#?V0 + 0
        MOV     R1,#?V0 + 12
        LCALL   ?UL_DIV_MOD
        MOV     A,?V0 + 12
        ADD     A,#0x30
        PUSH    A
        CFI CFA_SP SP+-1
        MOV     ?V0 + 0,R2
        MOV     A,#0x4
        LCALL   ?XSTACK_DISP0_8
        LCALL   ?Subroutine11 & 0xFFFF
//  943     tmp /= 10;
//  944   } while ( tmp );
??CrossCallReturnLabel_34:
        POP     A
        CFI CFA_SP SP+0
        LCALL   ?Subroutine3 & 0xFFFF
??CrossCallReturnLabel_1:
        LCALL   ?L_MOV_X
        MOV     R0,#?V0 + 8
        MOV     R1,#?V0 + 0
        LCALL   ?UL_DIV_MOD
        MOV     DPTR,#__Constant_0
        MOV     R0,#?V0 + 8
        LCALL   ?L_EQ_X
        JNZ     ??TransmitApp_DisplayResults_2
//  945 
//  946   HalLcdWriteString( (char*)lcd_buf, HAL_LCD_LINE_1 );
        ; Setup parameters for call to function HalLcdWriteString
        MOV     R1,#0x1
        MOV     A,#0x4
        LCALL   ?XSTACK_DISP0_8
        MOV     R2,DPL
        MOV     R3,DPH
        LCALL   ??HalLcdWriteString?relay
//  947   osal_memset( lcd_buf, ' ', LCD_W );
        ; Setup parameters for call to function osal_memset
        MOV     R4,#0x10
        MOV     R5,#0x0
        MOV     R1,#0x20
        MOV     A,#0x4
        LCALL   ?XSTACK_DISP0_8
        MOV     R2,DPL
        MOV     R3,DPH
        LCALL   ??osal_memset?relay
//  948 
//  949   idx = 4;
        MOV     R2,#0x4
//  950   tmp = (txShdw >= 100000) ? 99999 : txShdw;
        MOV     DPTR,#__Constant_186a0
        MOV     R0,#?V0 + 0
        LCALL   ?L_MOV_X
        MOV     R0,#?V0 + 0
        MOV     R1,#?V0 + 4
        LCALL   ?UL_GT
        JC      ??TransmitApp_DisplayResults_3
        MOV     DPTR,#__Constant_1869f
        MOV     R0,#?V0 + 8
        LCALL   ?L_MOV_X
        SJMP    ??TransmitApp_DisplayResults_4
??TransmitApp_DisplayResults_3:
        MOV     ?V0 + 8,?V0 + 4
        MOV     ?V0 + 9,?V0 + 5
        MOV     ?V0 + 10,?V0 + 6
        MOV     ?V0 + 11,?V0 + 7
//  951   do
//  952   {
//  953     lcd_buf[idx--] = (uint8) ('0' + (tmp % 10));
??TransmitApp_DisplayResults_4:
        MOV     ?V0 + 4,?V0 + 8
        MOV     ?V0 + 5,?V0 + 9
        MOV     ?V0 + 6,?V0 + 10
        MOV     ?V0 + 7,?V0 + 11
        MOV     DPTR,#__Constant_a
        MOV     R0,#?V0 + 0
        LCALL   ?L_MOV_X
        MOV     R0,#?V0 + 4
        MOV     R1,#?V0 + 0
        LCALL   ?UL_DIV_MOD
        MOV     A,?V0 + 0
        ADD     A,#0x30
        PUSH    A
        CFI CFA_SP SP+-1
        MOV     ?V0 + 0,R2
        MOV     A,#0x4
        LCALL   ?XSTACK_DISP0_8
        LCALL   ?Subroutine11 & 0xFFFF
//  954     tmp /= 10;
//  955   } while ( tmp );
??CrossCallReturnLabel_35:
        POP     A
        CFI CFA_SP SP+0
        LCALL   ?Subroutine3 & 0xFFFF
??CrossCallReturnLabel_2:
        LCALL   ?L_MOV_X
        MOV     R0,#?V0 + 8
        MOV     R1,#?V0 + 0
        LCALL   ?UL_DIV_MOD
        MOV     DPTR,#__Constant_0
        MOV     R0,#?V0 + 8
        LCALL   ?L_EQ_X
        JNZ     ??TransmitApp_DisplayResults_4
//  956 
//  957   idx = LCD_W-1;
        MOV     R2,#0xf
//  958   tmp = txTotal;
        MOV     DPTR,#txTotal
        MOV     R0,#?V0 + 8
        LCALL   ?L_MOV_X
//  959   do
//  960   {
//  961     lcd_buf[idx--] = (uint8) ('0' + (tmp % 10));
??TransmitApp_DisplayResults_5:
        MOV     ?V0 + 4,?V0 + 8
        MOV     ?V0 + 5,?V0 + 9
        MOV     ?V0 + 6,?V0 + 10
        MOV     ?V0 + 7,?V0 + 11
        MOV     DPTR,#__Constant_a
        MOV     R0,#?V0 + 0
        LCALL   ?L_MOV_X
        MOV     R0,#?V0 + 4
        MOV     R1,#?V0 + 0
        LCALL   ?UL_DIV_MOD
        MOV     A,?V0 + 0
        ADD     A,#0x30
        PUSH    A
        CFI CFA_SP SP+-1
        MOV     ?V0 + 0,R2
        MOV     A,#0x4
        LCALL   ?XSTACK_DISP0_8
        LCALL   ?Subroutine11 & 0xFFFF
//  962     tmp /= 10;
//  963   } while ( tmp );
??CrossCallReturnLabel_36:
        POP     A
        CFI CFA_SP SP+0
        LCALL   ?Subroutine3 & 0xFFFF
??CrossCallReturnLabel_3:
        LCALL   ?L_MOV_X
        MOV     R0,#?V0 + 8
        MOV     R1,#?V0 + 0
        LCALL   ?UL_DIV_MOD
        MOV     DPTR,#__Constant_0
        MOV     R0,#?V0 + 8
        LCALL   ?L_EQ_X
        JNZ     ??TransmitApp_DisplayResults_5
//  964 
//  965   HalLcdWriteString( (char*)lcd_buf, HAL_LCD_LINE_2 );
        ; Setup parameters for call to function HalLcdWriteString
        MOV     R1,#0x2
        MOV     A,#0x4
        LCALL   ?XSTACK_DISP0_8
        MOV     R2,DPL
        MOV     R3,DPH
        LCALL   ??HalLcdWriteString?relay
//  966 #else
//  967   DEBUG_INFO( COMPID_APP, SEVERITY_INFORMATION, 3, rxAccum,
//  968                                               (uint16)msecs, (uint16)rxTotal );
//  969 #endif
//  970 
//  971   if ( (rxAccum == 0) && (txAccum == 0) )
//  972   {
//  973     //osal_stop_timerEx( TransmitApp_TaskID, TRANSMITAPP_RCVTIMER_EVT );
//  974     //timerOn = FALSE;
//  975   }
//  976 
//  977   rxAccum = txAccum = 0;
        MOV     DPTR,#__Constant_0
        MOV     R0,#?V0 + 0
        LCALL   ?L_MOV_X
        MOV     DPTR,#txAccum
        MOV     R0,#?V0 + 0
        LCALL   ?L_MOV_TO_X
        MOV     DPTR,#__Constant_0
        MOV     R0,#?V0 + 0
        LCALL   ?L_MOV_X
        MOV     DPTR,#rxAccum
        MOV     R0,#?V0 + 0
        LCALL   ?L_MOV_TO_X
//  978 }
        MOV     A,#0x15
        LCALL   ?DEALLOC_XSTACK8
        CFI CFA_XSP16 add(XSP16, 24)
        MOV     R7,#0x10
        LJMP    ?BANKED_LEAVE_XDATA
        CFI EndBlock cfiBlock61

        RSEG BANKED_CODE:CODE:NOROOT(0)
?Subroutine12:
        CFI Block cfiCond62 Using cfiCommon0
        CFI NoFunction
        CFI Conditional ??CrossCallReturnLabel_18
        CFI R6 load(1, XDATA, add(CFA_XSP16, literal(-24)))
        CFI VB load(1, XDATA, add(CFA_XSP16, literal(-23)))
        CFI V0 load(1, XDATA, add(CFA_XSP16, literal(-22)))
        CFI V1 load(1, XDATA, add(CFA_XSP16, literal(-21)))
        CFI V2 load(1, XDATA, add(CFA_XSP16, literal(-20)))
        CFI V3 load(1, XDATA, add(CFA_XSP16, literal(-19)))
        CFI V4 load(1, XDATA, add(CFA_XSP16, literal(-18)))
        CFI V5 load(1, XDATA, add(CFA_XSP16, literal(-17)))
        CFI V6 load(1, XDATA, add(CFA_XSP16, literal(-16)))
        CFI V7 load(1, XDATA, add(CFA_XSP16, literal(-15)))
        CFI V8 load(1, XDATA, add(CFA_XSP16, literal(-14)))
        CFI V9 load(1, XDATA, add(CFA_XSP16, literal(-13)))
        CFI V10 load(1, XDATA, add(CFA_XSP16, literal(-12)))
        CFI V11 load(1, XDATA, add(CFA_XSP16, literal(-11)))
        CFI V12 load(1, XDATA, add(CFA_XSP16, literal(-10)))
        CFI V13 load(1, XDATA, add(CFA_XSP16, literal(-9)))
        CFI V14 load(1, XDATA, add(CFA_XSP16, literal(-8)))
        CFI V15 load(1, XDATA, add(CFA_XSP16, literal(-7)))
        CFI R7 load(1, XDATA, add(CFA_XSP16, literal(-6)))
        CFI ?RET_LOW load(1, XDATA, add(CFA_XSP16, literal(-5)))
        CFI ?RET_HIGH load(1, XDATA, add(CFA_XSP16, literal(-4)))
        CFI ?BRET_EXT load(1, XDATA, add(CFA_XSP16, literal(-3)))
        CFI DPL0 load(1, XDATA, add(CFA_XSP16, literal(-2)))
        CFI DPH0 load(1, XDATA, add(CFA_XSP16, literal(-1)))
        CFI CFA_SP SP+0
        CFI CFA_XSP16 add(XSP16, 45)
        CFI Block cfiCond63 Using cfiCommon0
        CFI (cfiCond63) NoFunction
        CFI (cfiCond63) Conditional ??CrossCallReturnLabel_19
        CFI (cfiCond63) R6 load(1, XDATA, add(CFA_XSP16, literal(-24)))
        CFI (cfiCond63) VB load(1, XDATA, add(CFA_XSP16, literal(-23)))
        CFI (cfiCond63) V0 load(1, XDATA, add(CFA_XSP16, literal(-22)))
        CFI (cfiCond63) V1 load(1, XDATA, add(CFA_XSP16, literal(-21)))
        CFI (cfiCond63) V2 load(1, XDATA, add(CFA_XSP16, literal(-20)))
        CFI (cfiCond63) V3 load(1, XDATA, add(CFA_XSP16, literal(-19)))
        CFI (cfiCond63) V4 load(1, XDATA, add(CFA_XSP16, literal(-18)))
        CFI (cfiCond63) V5 load(1, XDATA, add(CFA_XSP16, literal(-17)))
        CFI (cfiCond63) V6 load(1, XDATA, add(CFA_XSP16, literal(-16)))
        CFI (cfiCond63) V7 load(1, XDATA, add(CFA_XSP16, literal(-15)))
        CFI (cfiCond63) V8 load(1, XDATA, add(CFA_XSP16, literal(-14)))
        CFI (cfiCond63) V9 load(1, XDATA, add(CFA_XSP16, literal(-13)))
        CFI (cfiCond63) V10 load(1, XDATA, add(CFA_XSP16, literal(-12)))
        CFI (cfiCond63) V11 load(1, XDATA, add(CFA_XSP16, literal(-11)))
        CFI (cfiCond63) V12 load(1, XDATA, add(CFA_XSP16, literal(-10)))
        CFI (cfiCond63) V13 load(1, XDATA, add(CFA_XSP16, literal(-9)))
        CFI (cfiCond63) V14 load(1, XDATA, add(CFA_XSP16, literal(-8)))
        CFI (cfiCond63) V15 load(1, XDATA, add(CFA_XSP16, literal(-7)))
        CFI (cfiCond63) R7 load(1, XDATA, add(CFA_XSP16, literal(-6)))
        CFI (cfiCond63) ?RET_LOW load(1, XDATA, add(CFA_XSP16, literal(-5)))
        CFI (cfiCond63) ?RET_HIGH load(1, XDATA, add(CFA_XSP16, literal(-4)))
        CFI (cfiCond63) ?BRET_EXT load(1, XDATA, add(CFA_XSP16, literal(-3)))
        CFI (cfiCond63) DPL0 load(1, XDATA, add(CFA_XSP16, literal(-2)))
        CFI (cfiCond63) DPH0 load(1, XDATA, add(CFA_XSP16, literal(-1)))
        CFI (cfiCond63) CFA_SP SP+0
        CFI (cfiCond63) CFA_XSP16 add(XSP16, 45)
        CFI Block cfiPicker64 Using cfiCommon1
        CFI (cfiPicker64) NoFunction
        CFI (cfiPicker64) Picker
        LCALL   ??osal_GetSystemClock?relay
        MOV     ?V0 + 0,R2
        MOV     ?V0 + 1,R3
        MOV     ?V0 + 2,R4
        MOV     ?V0 + 3,R5
        MOV     DPTR,#clkShdw
        MOV     R0,#?V0 + 0
        RET
        CFI EndBlock cfiCond62
        CFI EndBlock cfiCond63
        CFI EndBlock cfiPicker64

        RSEG BANKED_CODE:CODE:NOROOT(0)
?Subroutine3:
        CFI Block cfiCond65 Using cfiCommon0
        CFI NoFunction
        CFI Conditional ??CrossCallReturnLabel_0
        CFI R6 load(1, XDATA, add(CFA_XSP16, literal(-24)))
        CFI VB load(1, XDATA, add(CFA_XSP16, literal(-23)))
        CFI V0 load(1, XDATA, add(CFA_XSP16, literal(-22)))
        CFI V1 load(1, XDATA, add(CFA_XSP16, literal(-21)))
        CFI V2 load(1, XDATA, add(CFA_XSP16, literal(-20)))
        CFI V3 load(1, XDATA, add(CFA_XSP16, literal(-19)))
        CFI V4 load(1, XDATA, add(CFA_XSP16, literal(-18)))
        CFI V5 load(1, XDATA, add(CFA_XSP16, literal(-17)))
        CFI V6 load(1, XDATA, add(CFA_XSP16, literal(-16)))
        CFI V7 load(1, XDATA, add(CFA_XSP16, literal(-15)))
        CFI V8 load(1, XDATA, add(CFA_XSP16, literal(-14)))
        CFI V9 load(1, XDATA, add(CFA_XSP16, literal(-13)))
        CFI V10 load(1, XDATA, add(CFA_XSP16, literal(-12)))
        CFI V11 load(1, XDATA, add(CFA_XSP16, literal(-11)))
        CFI V12 load(1, XDATA, add(CFA_XSP16, literal(-10)))
        CFI V13 load(1, XDATA, add(CFA_XSP16, literal(-9)))
        CFI V14 load(1, XDATA, add(CFA_XSP16, literal(-8)))
        CFI V15 load(1, XDATA, add(CFA_XSP16, literal(-7)))
        CFI R7 load(1, XDATA, add(CFA_XSP16, literal(-6)))
        CFI ?RET_LOW load(1, XDATA, add(CFA_XSP16, literal(-5)))
        CFI ?RET_HIGH load(1, XDATA, add(CFA_XSP16, literal(-4)))
        CFI ?BRET_EXT load(1, XDATA, add(CFA_XSP16, literal(-3)))
        CFI DPL0 load(1, XDATA, add(CFA_XSP16, literal(-2)))
        CFI DPH0 load(1, XDATA, add(CFA_XSP16, literal(-1)))
        CFI CFA_SP SP+0
        CFI CFA_XSP16 add(XSP16, 45)
        CFI Block cfiCond66 Using cfiCommon0
        CFI (cfiCond66) NoFunction
        CFI (cfiCond66) Conditional ??CrossCallReturnLabel_1
        CFI (cfiCond66) R6 load(1, XDATA, add(CFA_XSP16, literal(-24)))
        CFI (cfiCond66) VB load(1, XDATA, add(CFA_XSP16, literal(-23)))
        CFI (cfiCond66) V0 load(1, XDATA, add(CFA_XSP16, literal(-22)))
        CFI (cfiCond66) V1 load(1, XDATA, add(CFA_XSP16, literal(-21)))
        CFI (cfiCond66) V2 load(1, XDATA, add(CFA_XSP16, literal(-20)))
        CFI (cfiCond66) V3 load(1, XDATA, add(CFA_XSP16, literal(-19)))
        CFI (cfiCond66) V4 load(1, XDATA, add(CFA_XSP16, literal(-18)))
        CFI (cfiCond66) V5 load(1, XDATA, add(CFA_XSP16, literal(-17)))
        CFI (cfiCond66) V6 load(1, XDATA, add(CFA_XSP16, literal(-16)))
        CFI (cfiCond66) V7 load(1, XDATA, add(CFA_XSP16, literal(-15)))
        CFI (cfiCond66) V8 load(1, XDATA, add(CFA_XSP16, literal(-14)))
        CFI (cfiCond66) V9 load(1, XDATA, add(CFA_XSP16, literal(-13)))
        CFI (cfiCond66) V10 load(1, XDATA, add(CFA_XSP16, literal(-12)))
        CFI (cfiCond66) V11 load(1, XDATA, add(CFA_XSP16, literal(-11)))
        CFI (cfiCond66) V12 load(1, XDATA, add(CFA_XSP16, literal(-10)))
        CFI (cfiCond66) V13 load(1, XDATA, add(CFA_XSP16, literal(-9)))
        CFI (cfiCond66) V14 load(1, XDATA, add(CFA_XSP16, literal(-8)))
        CFI (cfiCond66) V15 load(1, XDATA, add(CFA_XSP16, literal(-7)))
        CFI (cfiCond66) R7 load(1, XDATA, add(CFA_XSP16, literal(-6)))
        CFI (cfiCond66) ?RET_LOW load(1, XDATA, add(CFA_XSP16, literal(-5)))
        CFI (cfiCond66) ?RET_HIGH load(1, XDATA, add(CFA_XSP16, literal(-4)))
        CFI (cfiCond66) ?BRET_EXT load(1, XDATA, add(CFA_XSP16, literal(-3)))
        CFI (cfiCond66) DPL0 load(1, XDATA, add(CFA_XSP16, literal(-2)))
        CFI (cfiCond66) DPH0 load(1, XDATA, add(CFA_XSP16, literal(-1)))
        CFI (cfiCond66) CFA_SP SP+0
        CFI (cfiCond66) CFA_XSP16 add(XSP16, 45)
        CFI Block cfiCond67 Using cfiCommon0
        CFI (cfiCond67) NoFunction
        CFI (cfiCond67) Conditional ??CrossCallReturnLabel_2
        CFI (cfiCond67) R6 load(1, XDATA, add(CFA_XSP16, literal(-24)))
        CFI (cfiCond67) VB load(1, XDATA, add(CFA_XSP16, literal(-23)))
        CFI (cfiCond67) V0 load(1, XDATA, add(CFA_XSP16, literal(-22)))
        CFI (cfiCond67) V1 load(1, XDATA, add(CFA_XSP16, literal(-21)))
        CFI (cfiCond67) V2 load(1, XDATA, add(CFA_XSP16, literal(-20)))
        CFI (cfiCond67) V3 load(1, XDATA, add(CFA_XSP16, literal(-19)))
        CFI (cfiCond67) V4 load(1, XDATA, add(CFA_XSP16, literal(-18)))
        CFI (cfiCond67) V5 load(1, XDATA, add(CFA_XSP16, literal(-17)))
        CFI (cfiCond67) V6 load(1, XDATA, add(CFA_XSP16, literal(-16)))
        CFI (cfiCond67) V7 load(1, XDATA, add(CFA_XSP16, literal(-15)))
        CFI (cfiCond67) V8 load(1, XDATA, add(CFA_XSP16, literal(-14)))
        CFI (cfiCond67) V9 load(1, XDATA, add(CFA_XSP16, literal(-13)))
        CFI (cfiCond67) V10 load(1, XDATA, add(CFA_XSP16, literal(-12)))
        CFI (cfiCond67) V11 load(1, XDATA, add(CFA_XSP16, literal(-11)))
        CFI (cfiCond67) V12 load(1, XDATA, add(CFA_XSP16, literal(-10)))
        CFI (cfiCond67) V13 load(1, XDATA, add(CFA_XSP16, literal(-9)))
        CFI (cfiCond67) V14 load(1, XDATA, add(CFA_XSP16, literal(-8)))
        CFI (cfiCond67) V15 load(1, XDATA, add(CFA_XSP16, literal(-7)))
        CFI (cfiCond67) R7 load(1, XDATA, add(CFA_XSP16, literal(-6)))
        CFI (cfiCond67) ?RET_LOW load(1, XDATA, add(CFA_XSP16, literal(-5)))
        CFI (cfiCond67) ?RET_HIGH load(1, XDATA, add(CFA_XSP16, literal(-4)))
        CFI (cfiCond67) ?BRET_EXT load(1, XDATA, add(CFA_XSP16, literal(-3)))
        CFI (cfiCond67) DPL0 load(1, XDATA, add(CFA_XSP16, literal(-2)))
        CFI (cfiCond67) DPH0 load(1, XDATA, add(CFA_XSP16, literal(-1)))
        CFI (cfiCond67) CFA_SP SP+0
        CFI (cfiCond67) CFA_XSP16 add(XSP16, 45)
        CFI Block cfiCond68 Using cfiCommon0
        CFI (cfiCond68) NoFunction
        CFI (cfiCond68) Conditional ??CrossCallReturnLabel_3
        CFI (cfiCond68) R6 load(1, XDATA, add(CFA_XSP16, literal(-24)))
        CFI (cfiCond68) VB load(1, XDATA, add(CFA_XSP16, literal(-23)))
        CFI (cfiCond68) V0 load(1, XDATA, add(CFA_XSP16, literal(-22)))
        CFI (cfiCond68) V1 load(1, XDATA, add(CFA_XSP16, literal(-21)))
        CFI (cfiCond68) V2 load(1, XDATA, add(CFA_XSP16, literal(-20)))
        CFI (cfiCond68) V3 load(1, XDATA, add(CFA_XSP16, literal(-19)))
        CFI (cfiCond68) V4 load(1, XDATA, add(CFA_XSP16, literal(-18)))
        CFI (cfiCond68) V5 load(1, XDATA, add(CFA_XSP16, literal(-17)))
        CFI (cfiCond68) V6 load(1, XDATA, add(CFA_XSP16, literal(-16)))
        CFI (cfiCond68) V7 load(1, XDATA, add(CFA_XSP16, literal(-15)))
        CFI (cfiCond68) V8 load(1, XDATA, add(CFA_XSP16, literal(-14)))
        CFI (cfiCond68) V9 load(1, XDATA, add(CFA_XSP16, literal(-13)))
        CFI (cfiCond68) V10 load(1, XDATA, add(CFA_XSP16, literal(-12)))
        CFI (cfiCond68) V11 load(1, XDATA, add(CFA_XSP16, literal(-11)))
        CFI (cfiCond68) V12 load(1, XDATA, add(CFA_XSP16, literal(-10)))
        CFI (cfiCond68) V13 load(1, XDATA, add(CFA_XSP16, literal(-9)))
        CFI (cfiCond68) V14 load(1, XDATA, add(CFA_XSP16, literal(-8)))
        CFI (cfiCond68) V15 load(1, XDATA, add(CFA_XSP16, literal(-7)))
        CFI (cfiCond68) R7 load(1, XDATA, add(CFA_XSP16, literal(-6)))
        CFI (cfiCond68) ?RET_LOW load(1, XDATA, add(CFA_XSP16, literal(-5)))
        CFI (cfiCond68) ?RET_HIGH load(1, XDATA, add(CFA_XSP16, literal(-4)))
        CFI (cfiCond68) ?BRET_EXT load(1, XDATA, add(CFA_XSP16, literal(-3)))
        CFI (cfiCond68) DPL0 load(1, XDATA, add(CFA_XSP16, literal(-2)))
        CFI (cfiCond68) DPH0 load(1, XDATA, add(CFA_XSP16, literal(-1)))
        CFI (cfiCond68) CFA_SP SP+0
        CFI (cfiCond68) CFA_XSP16 add(XSP16, 45)
        CFI Block cfiPicker69 Using cfiCommon1
        CFI (cfiPicker69) NoFunction
        CFI (cfiPicker69) Picker
        MOVX    @DPTR,A
        DEC     R2
        MOV     DPTR,#__Constant_a
        MOV     R0,#?V0 + 0
        RET
        CFI EndBlock cfiCond65
        CFI EndBlock cfiCond66
        CFI EndBlock cfiCond67
        CFI EndBlock cfiCond68
        CFI EndBlock cfiPicker69

        RSEG BANK_RELAYS:CODE:REORDER:NOROOT(0)
??TransmitApp_Init?relay:
        LCALL   ?BDISPATCH
        DATA
        DC24    TransmitApp_Init

        RSEG BANK_RELAYS:CODE:REORDER:NOROOT(0)
??TransmitApp_ProcessEvent?relay:
        LCALL   ?BDISPATCH
        DATA
        DC24    TransmitApp_ProcessEvent

        RSEG BANK_RELAYS:CODE:REORDER:NOROOT(0)
??TransmitApp_ProcessZDOMsgs?relay:
        LCALL   ?BDISPATCH
        DATA
        DC24    TransmitApp_ProcessZDOMsgs

        RSEG BANK_RELAYS:CODE:REORDER:NOROOT(0)
??TransmitApp_HandleKeys?relay:
        LCALL   ?BDISPATCH
        DATA
        DC24    TransmitApp_HandleKeys

        RSEG BANK_RELAYS:CODE:REORDER:NOROOT(0)
??TransmitApp_MessageMSGCB?relay:
        LCALL   ?BDISPATCH
        DATA
        DC24    TransmitApp_MessageMSGCB

        RSEG BANK_RELAYS:CODE:REORDER:NOROOT(0)
??TransmitApp_SendTheMessage?relay:
        LCALL   ?BDISPATCH
        DATA
        DC24    TransmitApp_SendTheMessage

        RSEG BANK_RELAYS:CODE:REORDER:NOROOT(0)
??TransmitApp_ChangeState?relay:
        LCALL   ?BDISPATCH
        DATA
        DC24    TransmitApp_ChangeState

        RSEG BANK_RELAYS:CODE:REORDER:NOROOT(0)
??TransmitApp_SetSendEvt?relay:
        LCALL   ?BDISPATCH
        DATA
        DC24    TransmitApp_SetSendEvt

        RSEG BANK_RELAYS:CODE:REORDER:NOROOT(0)
??uart_sent?relay:
        LCALL   ?BDISPATCH
        DATA
        DC24    uart_sent

        RSEG BANK_RELAYS:CODE:REORDER:NOROOT(0)
??TransmitApp_DisplayResults?relay:
        LCALL   ?BDISPATCH
        DATA
        DC24    TransmitApp_DisplayResults

        RSEG XDATA_ROM_C:CONST:REORDER:NOROOT(0)
        DATA
`?<Constant "TransmitApp">`:
        DB "TransmitApp"

        RSEG XDATA_ROM_C:CONST:REORDER:NOROOT(0)
        DATA
`?<Constant "Home Automation --Sta...">`:
        DB "Home Automation --Start!!\012"

        RSEG XDATA_ROM_C:CONST:REORDER:NOROOT(0)
        DATA
`?<Constant "Bind Success!\\n">`:
        DB "Bind Success!\012"

        RSEG XDATA_ROM_C:CONST:REORDER:NOROOT(0)
        DATA
`?<Constant "Bind failure!\\n">`:
        DB "Bind failure!\012"

        RSEG XDATA_ROM_C:CONST:REORDER:NOROOT(0)
        DATA
`?<Constant "Match_Desc_rsp Sucess!\\n">`:
        DB "Match_Desc_rsp Sucess!\012"

        RSEG XDATA_ROM_C:CONST:REORDER:NOROOT(0)
        DATA
`?<Constant "<---">`:
        DB "<---"

        RSEG XDATA_ROM_C:CONST:REORDER:NOROOT(0)
        DATA
`?<Constant "Binding~\\n">`:
        DB "Binding~\012"

        RSEG XDATA_ROM_C:CONST:REORDER:NOROOT(0)
        DATA
`?<Constant "sent light on cmd---\\n">`:
        DB "sent light on cmd---\012"

        RSEG XDATA_ROM_C:CONST:REORDER:NOROOT(0)
        DATA
`?<Constant "sent light off cmd---\\n">`:
        DB "sent light off cmd---\012"

        RSEG XDATA_ROM_C:CONST:REORDER:NOROOT(0)
        DATA
`?<Constant "sent alarm on cmd---\\n">`:
        DB "sent alarm on cmd---\012"

        RSEG XDATA_ROM_C:CONST:REORDER:NOROOT(0)
        DATA
`?<Constant "sent alrm off cmd---\\n">`:
        DB "sent alrm off cmd---\012"

        RSEG XDATA_ROM_C:CONST:REORDER:NOROOT(0)
        DATA
`?<Constant "Sucess !\\n">`:
        DB "Sucess !\012"

        RSEG XDATA_ROM_C:CONST:REORDER:NOROOT(0)
        DATA
`?<Constant "sent Error, so wait (...">`:
        DB "sent Error, so wait (10 mSec) and try again.\012"

        RSEG XDATA_ROM_C:CONST:REORDER:NOROOT(0)
        DATA
__Constant_3e8:
        DD 1000

        RSEG XDATA_ROM_C:CONST:REORDER:NOROOT(0)
        DATA
__Constant_186a0:
        DD 100000

        RSEG XDATA_ROM_C:CONST:REORDER:NOROOT(0)
        DATA
__Constant_1869f:
        DD 99999

        RSEG XDATA_ROM_C:CONST:REORDER:NOROOT(0)
        DATA
__Constant_a:
        DD 10

        RSEG XDATA_ROM_C:CONST:REORDER:NOROOT(0)
        DATA
__Constant_0:
        DD 0

        END
//  979 
//  980 /*********************************************************************
//  981 *********************************************************************/
// 
// 2 360 bytes in segment BANKED_CODE
//    60 bytes in segment BANK_RELAYS
//     3 bytes in segment SFR_AN
//   287 bytes in segment XDATA_ROM_C
//   151 bytes in segment XDATA_Z
// 
// 2 420 bytes of CODE  memory
//   267 bytes of CONST memory (+ 20 bytes shared)
//     0 bytes of DATA  memory (+  3 bytes shared)
//   151 bytes of XDATA memory
//
//Errors: none
//Warnings: 3
